MPASM 5.87                          MAIN.ASM   6-6-2020  3:57:00         PAGE  1


LOC  OBJECT CODE     LINE SOURCE TEXT
  VALUE

                      00001 #include "p16f877a.inc"
                      00001         LIST
                      00002 
                      00003 ;==========================================================================
                      00004 ; Build date : Jan 06 2020
                      00005 ;  MPASM PIC16F877A processor include
                      00006 ; 
                      00007 ;  (c) Copyright 1999-2020 Microchip Technology, All rights reserved
                      00008 ;==========================================================================
                      00009 
                      00567         LIST
                      00002 #include "lcd.inc"
                      00001 #IFNDEF CORNIO_LCD
                      00002 #DEFINE CORNIO_LCD
                      00003     
                      00004 #include "lib.inc"
                      00001 #IFNDEF CORNIO_BASE
                      00002 #DEFINE CORNIO_BASE
                      00003 
                      00004 #include "p16f877a.inc"    
                      00568         LIST
                      00569 
                      00570 ;==========================================================================
                      00571 ; Build date : Jan 06 2020
                      00572 ;  MPASM PIC16F877A processor include
                      00573 ; 
                      00574 ;  (c) Copyright 1999-2020 Microchip Technology, All rights reserved
                      00575 ;==========================================================================
                      00576 
Message[310]: Superseding current maximum RAM and RAM map.
                      01134         LIST
                      00005     
Warning[207]: Found label after column 1. (LIB_VARS)
                      00006  LIB_VARS MACRO       
                      00007  CORNIO_DELAY_FT1   RES        1
                      00008  CORNIO_DELAY_FT2   RES        1  
                      00009  CORNIO_DELAY_FT3   RES        1
                      00010  CORNIO_DELAY_FT4   RES        1  
                      00011  ENDM   
                      00012     
                      00013 BANK0 MACRO
                      00014  BCF STATUS, RP1
                      00015  BCF STATUS, RP0
                      00016  ENDM
                      00017 
                      00018 BANK1 MACRO
                      00019  BCF STATUS, RP1
                      00020  BSF STATUS, RP0
                      00021  ENDM
                      00022 
                      00023 BANK2 MACRO
                      00024  BSF STATUS, RP1
                      00025  BCF STATUS, RP0
MPASM 5.87                          MAIN.ASM   6-6-2020  3:57:00         PAGE  2


LOC  OBJECT CODE     LINE SOURCE TEXT
  VALUE

                      00026  ENDM
                      00027 
                      00028 BANK3 MACRO
                      00029  BSF STATUS, RP1
                      00030  BSF STATUS, RP0
                      00031  ENDM
                      00032  
                      00033 CMPFL MACRO FILE,LITERAL   ; COMPARE FILE TO LITERAL
                      00034  MOVF FILE,W
                      00035  SUBLW LITERAL
                      00036  ENDM
                      00037  
                      00038 CMPFF MACRO FILE1,FILE2     ; COMPARE FILE TO FILE
                      00039  MOVF FILE1,W
                      00040  SUBWF FILE2
                      00041  ENDM
                      00042  
                      00043 MOVFF MACRO FILE1,FILE2     ; MOVE FILE TO FILE
                      00044  MOVF FILE1,W
                      00045  MOVWF FILE2
                      00046  ENDM
                      00047 
                      00048 MOVLF MACRO LITERAL,FILE    ; MOVE LITERAL TO FILE
                      00049  MOVLW LITERAL
                      00050  MOVWF FILE
                      00051  ENDM
                      00052  
                      00053 JE MACRO IF_TRUE            ; JUMP EQUAL
                      00054  BTFSC STATUS, Z
                      00055  GOTO IF_TRUE
                      00056  ENDM
                      00057 
                      00058 JNE MACRO IF_TRUE           ; JUMP NOT EQUAL
                      00059  BTFSS STATUS, Z
                      00060  GOTO IF_TRUE
                      00061  ENDM
                      00062  
                      00063 DELAY_MS MACRO T            ; DELAY IN MS
                      00064     MOVLW D'165' 
                      00065     MOVWF CORNIO_DELAY_FT1 
                      00066     
                      00067     MOVLW T 
                      00068     MOVWF CORNIO_DELAY_FT2
                      00069     
                      00070     DECFSZ CORNIO_DELAY_FT1,1 
                      00071     GOTO $-1 
                      00072     DECFSZ CORNIO_DELAY_FT2,1
                      00073     GOTO $-3
                      00074  ENDM
                      00075  
Warning[207]: Found label after column 1. (DELAY_S)
                      00076  DELAY_S MACRO T            ; DELAY IN MS
                      00077     MOVLW D'165' 
MPASM 5.87                          MAIN.ASM   6-6-2020  3:57:00         PAGE  3


LOC  OBJECT CODE     LINE SOURCE TEXT
  VALUE

                      00078     MOVWF CORNIO_DELAY_FT1 
                      00079     
                      00080     MOVLW D'255' 
                      00081     MOVWF CORNIO_DELAY_FT2
                      00082     
                      00083     MOVLW D'4'
                      00084     MOVWF CORNIO_DELAY_FT3
                      00085     
                      00086     MOVLW T
                      00087     MOVWF CORNIO_DELAY_FT4
                      00088     
                      00089     DECFSZ CORNIO_DELAY_FT1,1 
                      00090     GOTO $-1 
                      00091     DECFSZ CORNIO_DELAY_FT2,1
                      00092     GOTO $-3
                      00093     DECFSZ CORNIO_DELAY_FT3,1
                      00094     GOTO $-5
                      00095     DECFSZ CORNIO_DELAY_FT4,1
                      00096     GOTO $-7
                      00097  ENDM
                      00098  
                      00099  
                      00100  #ENDIF CORNIO_BASE
                      00101 
                      00102 
                      00005     
                      00006 #define LENA  RE1
                      00007 #define LDAT  RE2
                      00008 #define LPORT PORTD 
                      00009     
  0000000F            00010 L_ON  EQU       B'00001111'
  00000008            00011 L_OFF EQU       B'00001000'
  00000001            00012 L_CLR EQU       B'00000001'
  00000080            00013 L_L1  EQU       B'10000000'
  000000C0            00014 L_L2  EQU       B'11000000'
  00000090            00015 L_L3  EQU       B'10010000'
  000000D0            00016 L_L4  EQU       B'11010000'
  0000000F            00017 L_CR  EQU       B'00001111'     
  0000000C            00018 L_NCR EQU       B'00001100'
  00000038            00019 L_CFG EQU       B'00111000'
                      00020  
  00000018            00021 L_SHIFT_LEFT  EQU       B'00011000'
  0000001C            00022 L_SHIFT_RIGHT EQU       B'00011100'
                      00023 
                      00024 
                      00025 ;+++++++++++++++++++++++++++++++++++++++++++++++++++
                      00026 LCD_VARS MACRO       
                      00027  LCD_CMD_INPUT   RES           1
                      00028  LCD_DAT_INPUT   RES           1  
                      00029  ENDM
                      00030  
                      00031 ;++++++++++++++++++++++++++++++++++++++++++++++++++++
                      00032 LCD_CMD MACRO VAL
MPASM 5.87                          MAIN.ASM   6-6-2020  3:57:00         PAGE  4


LOC  OBJECT CODE     LINE SOURCE TEXT
  VALUE

                      00033  MOVLW VAL
                      00034  MOVWF LCD_CMD_INPUT
                      00035  CALL DEF_LCD_CMD
                      00036  ENDM
                      00037  
                      00038 ;+++++++++++++++++++++++++++++++++++++++++++++++++++++
                      00039 LCD_DAT MACRO VAL
                      00040  MOVLW VAL
                      00041  MOVWF LCD_DAT_INPUT
                      00042  CALL DEF_LCD_DAT
                      00043  ENDM
                      00044  
                      00045 LCD_DAT_F MACRO VAL
                      00046  MOVF VAL,0
                      00047  MOVWF LCD_DAT_INPUT
                      00048  CALL DEF_LCD_DAT
                      00049  ENDM
                      00050  
                      00051  ;++++++++++++++++++++++++++++++++++++++++++++++++++++
                      00052 DEFINE_LCD_FUNCS MACRO
                      00053  LCD_ENABLE:
                      00054  BANK1
                      00055  CLRF TRISD
                      00056  CLRF TRISE
                      00057  BANK0
                      00058  RETURN
                      00059  
                      00060  LCD_CLEAR:
                      00061     LCD_CMD L_CLR
                      00062     RETURN
                      00063  
                      00064  DEF_LCD_CMD:                   ; void lcd_cmd(unsigned char val)
                      00065     BSF PORTE,LENA              ; LENA = 1;
                      00066  
                      00067     MOVF LCD_CMD_INPUT,0        ; lcd_wr(val);
                      00068     MOVWF LPORT                 ;
                      00069  
                      00070     BCF PORTE,LDAT              ; LDAT = 0;
                      00071     DELAY_MS D'3'               ; atraso_ms(3);
                      00072     BCF PORTE,LENA              ; LENA = 0;
                      00073     DELAY_MS D'3'               ; atraso_ms(3);
                      00074     BSF PORTE,LENA              ; LENA = 1;
                      00075     RETURN
                      00076  
                      00077  DEF_LCD_DAT:                   ; void lcd_dat(unsigned char val)
                      00078     BSF PORTE,LENA              ; LENA = 1;
                      00079     
                      00080     MOVF LCD_DAT_INPUT,0        ; lcd_wr(val);
                      00081     MOVWF LPORT                 ;
                      00082     
                      00083     BSF PORTE,LDAT              ; LDAT = 1;
                      00084     DELAY_MS D'3'               ; atraso_ms(3);
                      00085     BCF PORTE,LENA              ; LENA = 0;
MPASM 5.87                          MAIN.ASM   6-6-2020  3:57:00         PAGE  5


LOC  OBJECT CODE     LINE SOURCE TEXT
  VALUE

                      00086     DELAY_MS D'3'               ; atraso_ms(3);
                      00087     BSF PORTE,LENA              ; LENA = 1;
                      00088     RETURN
                      00089  
                      00090  LCD_INIT:
                      00091     CALL LCD_ENABLE
                      00092     BCF PORTE,LENA              ; LENA = 0;
                      00093     BCF PORTE,LDAT              ; LDAT = 0;
                      00094     DELAY_MS D'20'              ; atraso_ms(20);
                      00095     BSF PORTE,LENA              ; LENA = 1;
                      00096     
                      00097     LCD_CMD L_CFG               ; lcd_cmd(L_CFG);
                      00098     DELAY_MS D'5'               ; atraso_ms(5);
                      00099     LCD_CMD L_CFG               ; lcd_cmd(L_CFG);
                      00100     DELAY_MS D'1'               ; atraso_ms(1);
                      00101     LCD_CMD L_CFG               ; lcd_cmd(L_CFG); configura
                      00102     LCD_CMD L_OFF               ; lcd_cmd(L_OFF);
                      00103     LCD_CMD L_ON                ; lcd_cmd(L_ON);  liga
                      00104     LCD_CMD L_CLR               ; lcd_cmd(L_CLR); limpa
                      00105     LCD_CMD L_CFG               ; lcd_cmd(L_CFG); configura
                      00106     LCD_CMD L_L1                ; lcd_cmd(L_L1);
                      00107     RETURN
                      00108  
                      00109  ENDM
                      00110     
                      00111 #ENDIF
                      00003 #include "input.inc"
                      00001 #ifndef INPUT_INC
                      00002 #define INPUT_INC
                      00003     
                      00004 #include "lib.inc"
                      00103 #IFNDEF CORNIO_BASE
                      00104 #DEFINE CORNIO_BASE
                      00105 
                      00106 #include "p16f877a.inc"    
                      00107     
                      00108  LIB_VARS MACRO       
                      00109  CORNIO_DELAY_FT1   RES        1
                      00110  CORNIO_DELAY_FT2   RES        1  
                      00111  CORNIO_DELAY_FT3   RES        1
                      00112  CORNIO_DELAY_FT4   RES        1  
                      00113  ENDM   
                      00114     
                      00115 BANK0 MACRO
                      00116  BCF STATUS, RP1
                      00117  BCF STATUS, RP0
                      00118  ENDM
                      00119 
                      00120 BANK1 MACRO
                      00121  BCF STATUS, RP1
                      00122  BSF STATUS, RP0
                      00123  ENDM
                      00124 
MPASM 5.87                          MAIN.ASM   6-6-2020  3:57:00         PAGE  6


LOC  OBJECT CODE     LINE SOURCE TEXT
  VALUE

                      00125 BANK2 MACRO
                      00126  BSF STATUS, RP1
                      00127  BCF STATUS, RP0
                      00128  ENDM
                      00129 
                      00130 BANK3 MACRO
                      00131  BSF STATUS, RP1
                      00132  BSF STATUS, RP0
                      00133  ENDM
                      00134  
                      00135 CMPFL MACRO FILE,LITERAL   ; COMPARE FILE TO LITERAL
                      00136  MOVF FILE,W
                      00137  SUBLW LITERAL
                      00138  ENDM
                      00139  
                      00140 CMPFF MACRO FILE1,FILE2     ; COMPARE FILE TO FILE
                      00141  MOVF FILE1,W
                      00142  SUBWF FILE2
                      00143  ENDM
                      00144  
                      00145 MOVFF MACRO FILE1,FILE2     ; MOVE FILE TO FILE
                      00146  MOVF FILE1,W
                      00147  MOVWF FILE2
                      00148  ENDM
                      00149 
                      00150 MOVLF MACRO LITERAL,FILE    ; MOVE LITERAL TO FILE
                      00151  MOVLW LITERAL
                      00152  MOVWF FILE
                      00153  ENDM
                      00154  
                      00155 JE MACRO IF_TRUE            ; JUMP EQUAL
                      00156  BTFSC STATUS, Z
                      00157  GOTO IF_TRUE
                      00158  ENDM
                      00159 
                      00160 JNE MACRO IF_TRUE           ; JUMP NOT EQUAL
                      00161  BTFSS STATUS, Z
                      00162  GOTO IF_TRUE
                      00163  ENDM
                      00164  
                      00165 DELAY_MS MACRO T            ; DELAY IN MS
                      00166     MOVLW D'165' 
                      00167     MOVWF CORNIO_DELAY_FT1 
                      00168     
                      00169     MOVLW T 
                      00170     MOVWF CORNIO_DELAY_FT2
                      00171     
                      00172     DECFSZ CORNIO_DELAY_FT1,1 
                      00173     GOTO $-1 
                      00174     DECFSZ CORNIO_DELAY_FT2,1
                      00175     GOTO $-3
                      00176  ENDM
                      00177  
MPASM 5.87                          MAIN.ASM   6-6-2020  3:57:00         PAGE  7


LOC  OBJECT CODE     LINE SOURCE TEXT
  VALUE

                      00178  DELAY_S MACRO T            ; DELAY IN MS
                      00179     MOVLW D'165' 
                      00180     MOVWF CORNIO_DELAY_FT1 
                      00181     
                      00182     MOVLW D'255' 
                      00183     MOVWF CORNIO_DELAY_FT2
                      00184     
                      00185     MOVLW D'4'
                      00186     MOVWF CORNIO_DELAY_FT3
                      00187     
                      00188     MOVLW T
                      00189     MOVWF CORNIO_DELAY_FT4
                      00190     
                      00191     DECFSZ CORNIO_DELAY_FT1,1 
                      00192     GOTO $-1 
                      00193     DECFSZ CORNIO_DELAY_FT2,1
                      00194     GOTO $-3
                      00195     DECFSZ CORNIO_DELAY_FT3,1
                      00196     GOTO $-5
                      00197     DECFSZ CORNIO_DELAY_FT4,1
                      00198     GOTO $-7
                      00199  ENDM
                      00200  
                      00201  
                      00202  #ENDIF CORNIO_BASE
                      00203 
                      00204 
                      00005     
  0000003F            00006 KEY_ASTER    EQU  B'00111111'   
  0000007F            00007 KEY_HASH     EQU  B'01111111'
  0000001F            00008 KEY_NONE     EQU  B'00011111'
  00000000            00009 KEY_0        EQU  B'00000000'
  00000001            00010 KEY_1        EQU  D'1'
  00000002            00011 KEY_2        EQU  D'2'
  00000003            00012 KEY_3        EQU  D'3'
  00000004            00013 KEY_4        EQU  D'4'
  00000005            00014 KEY_5        EQU  D'5'
  00000006            00015 KEY_6        EQU  D'6'
  00000007            00016 KEY_7        EQU  D'7'
  00000008            00017 KEY_8        EQU  D'8'
  00000009            00018 KEY_9        EQU  D'9'   
                      00019 
                      00020         
                      00021         
                      00022     
                      00023     
                      00024 DEFINE_INPUT_FUNCS MACRO CORNIO_INPUT_VAL
                      00025 #IFNDEF CORNIO_INPUT_FUNC_DEF
                      00026 #DEFINE CORNIO_INPUT_FUNC_DEF
                      00027 
                      00028 
                      00029 ENABLE_KEYBOARD:
                      00030     BANK1
MPASM 5.87                          MAIN.ASM   6-6-2020  3:57:00         PAGE  8


LOC  OBJECT CODE     LINE SOURCE TEXT
  VALUE

                      00031      MOVLW B'00001111'
                      00032      MOVWF TRISA
                      00033     CLRF TRISB
                      00034     MOVLW B'00001111'
                      00035     MOVWF TRISD
                      00036     BANK0
                      00037     MOVLW B'00000000'
                      00038     MOVWF PORTB
                      00039     RETURN
                      00040     
                      00041  CORNIO_INPUT_LOOP:
                      00042     BANK1
                      00043      MOVLW B'00001111'
                      00044      MOVWF TRISA
                      00045     CLRF TRISB
                      00046     MOVLW B'00001111'
                      00047     MOVWF TRISD
                      00048     BANK0
                      00049     MOVLW B'00000000'
                      00050     MOVWF PORTB
                      00051  CORNIO_INPUT_LOOP_INI:
                      00052     MOVLW KEY_NONE
                      00053     MOVWF CORNIO_INPUT_VAL
                      00054     
                      00055     BCF PORTB, RB0
                      00056     BTFSS TRISD, RD0
                      00057     GOTO CORNIO_MOV_ASTER       ; *
                      00058     CALL CORNIO_INPUT_DELAY
                      00059     
                      00060     BTFSS TRISD, RD1
                      00061     GOTO CORNIO_MOV7            ; 7
                      00062     CALL CORNIO_INPUT_DELAY
                      00063 
                      00064     BTFSS TRISD, RD2
                      00065     GOTO CORNIO_MOV4            ; 4
                      00066     CALL CORNIO_INPUT_DELAY
                      00067 
                      00068     BTFSS TRISD, RD3
                      00069     GOTO CORNIO_MOV1            ;1
                      00070     CALL CORNIO_INPUT_DELAY
                      00071     BSF PORTB, RB0
                      00072     
                      00073     ;;
                      00074     BCF PORTB, RB1
                      00075     BTFSS TRISD, RD0
                      00076     GOTO CORNIO_MOV0            ;0
                      00077     CALL CORNIO_INPUT_DELAY
                      00078         
                      00079     BTFSS TRISD, RD1
                      00080     GOTO CORNIO_MOV8            ;8
                      00081     CALL CORNIO_INPUT_DELAY
                      00082         
                      00083     BTFSS TRISD, RD2
MPASM 5.87                          MAIN.ASM   6-6-2020  3:57:00         PAGE  9


LOC  OBJECT CODE     LINE SOURCE TEXT
  VALUE

                      00084     GOTO CORNIO_MOV5            ;5
                      00085     CALL CORNIO_INPUT_DELAY
                      00086         
                      00087     BTFSS TRISD, RD3
                      00088     GOTO CORNIO_MOV2            ;2
                      00089     CALL CORNIO_INPUT_DELAY
                      00090     BSF PORTB, RB1
                      00091     
                      00092     ;;
                      00093     BCF PORTB, RB2
                      00094     BTFSS TRISD, RD0
                      00095     GOTO CORNIO_MOV_HASH        ;#
                      00096     CALL CORNIO_INPUT_DELAY
                      00097         
                      00098     BTFSS TRISD, RD3
                      00099     GOTO CORNIO_MOV3            ;3
                      00100     CALL CORNIO_INPUT_DELAY
                      00101         
                      00102     BTFSS TRISD, RD2
                      00103     GOTO CORNIO_MOV6            ;6
                      00104     CALL CORNIO_INPUT_DELAY
                      00105         
                      00106     BTFSS TRISD, RD1
                      00107     GOTO CORNIO_MOV9            ;9
                      00108     CALL CORNIO_INPUT_DELAY
                      00109     BSF PORTB, RB2
                      00110     ;;
                      00111     
                      00112     GOTO CORNIO_INPUT_LOOP_INI
                      00113   
                      00114     
                      00115 CORNIO_INPUT:
                      00116     BANK1
                      00117     MOVLW B'00001111'
                      00118     MOVWF TRISA
                      00119     CLRF TRISB
                      00120     MOVLW B'00001111'
                      00121     MOVWF TRISD
                      00122     BANK0
                      00123     MOVLW B'00000000'
                      00124     MOVWF PORTB
                      00125     
                      00126     MOVLW KEY_NONE
                      00127     MOVWF CORNIO_INPUT_VAL
                      00128     
                      00129     BCF PORTB, RB0
                      00130     BTFSS TRISD, RD0
                      00131     GOTO CORNIO_MOV_ASTER       ; *
                      00132     CALL CORNIO_INPUT_DELAY
                      00133     
                      00134     BTFSS TRISD, RD1
                      00135     GOTO CORNIO_MOV7            ; 7
                      00136     CALL CORNIO_INPUT_DELAY
MPASM 5.87                          MAIN.ASM   6-6-2020  3:57:00         PAGE 10


LOC  OBJECT CODE     LINE SOURCE TEXT
  VALUE

                      00137 
                      00138     BTFSS TRISD, RD2
                      00139     GOTO CORNIO_MOV4            ; 4
                      00140     CALL CORNIO_INPUT_DELAY
                      00141 
                      00142     BTFSS TRISD, RD3
                      00143     GOTO CORNIO_MOV1            ;1
                      00144     CALL CORNIO_INPUT_DELAY
                      00145     
                      00146     BSF PORTB, RB0
                      00147     
                      00148     BCF PORTB, RB1
                      00149     BTFSS TRISD, RD0
                      00150     GOTO CORNIO_MOV0            ;0
                      00151     CALL CORNIO_INPUT_DELAY
                      00152         
                      00153     BTFSS TRISD, RD1
                      00154     GOTO CORNIO_MOV8            ;8
                      00155     CALL CORNIO_INPUT_DELAY
                      00156         
                      00157     BTFSS TRISD, RD2
                      00158     GOTO CORNIO_MOV5            ;5
                      00159     CALL CORNIO_INPUT_DELAY
                      00160         
                      00161     BTFSS TRISD, RD3
                      00162     GOTO CORNIO_MOV2            ;2
                      00163     CALL CORNIO_INPUT_DELAY
                      00164     
                      00165     BSF PORTB, RB1
                      00166     
                      00167     BCF PORTB, RB2
                      00168     BTFSS TRISD, RD0
                      00169     GOTO CORNIO_MOV_HASH        ;#
                      00170     CALL CORNIO_INPUT_DELAY
                      00171         
                      00172     BTFSS TRISD, RD3
                      00173     GOTO CORNIO_MOV3            ;3
                      00174     CALL CORNIO_INPUT_DELAY
                      00175         
                      00176     BTFSS TRISD, RD2
                      00177     GOTO CORNIO_MOV6            ;6
                      00178     CALL CORNIO_INPUT_DELAY
                      00179         
                      00180     BTFSS TRISD, RD1
                      00181     GOTO CORNIO_MOV9            ;9
                      00182     CALL CORNIO_INPUT_DELAY
                      00183     
                      00184     BSF PORTB, RB2
                      00185     GOTO CORNIO_EXIT
                      00186     
                      00187 CORNIO_INPUT_DELAY:
                      00188     DELAY_MS D'2'
                      00189     RETURN
MPASM 5.87                          MAIN.ASM   6-6-2020  3:57:00         PAGE 11


LOC  OBJECT CODE     LINE SOURCE TEXT
  VALUE

                      00190     
                      00191 CORNIO_MOV_ASTER:
                      00192     MOVLW KEY_ASTER
                      00193     MOVWF CORNIO_INPUT_VAL
                      00194     GOTO CORNIO_EXIT
                      00195 CORNIO_MOV_HASH:
                      00196     MOVLW KEY_HASH
                      00197     MOVWF CORNIO_INPUT_VAL
                      00198     GOTO CORNIO_EXIT
                      00199 CORNIO_MOV0:
                      00200     MOVLW KEY_0
                      00201     MOVWF CORNIO_INPUT_VAL
                      00202     GOTO CORNIO_EXIT
                      00203 CORNIO_MOV1:
                      00204     MOVLW KEY_1
                      00205     MOVWF CORNIO_INPUT_VAL
                      00206     GOTO CORNIO_EXIT    
                      00207 CORNIO_MOV2:
                      00208     MOVLW KEY_2
                      00209     MOVWF CORNIO_INPUT_VAL
                      00210     GOTO CORNIO_EXIT
                      00211 CORNIO_MOV3:
                      00212     MOVLW KEY_3
                      00213     MOVWF CORNIO_INPUT_VAL
                      00214     GOTO CORNIO_EXIT
                      00215 CORNIO_MOV4:
                      00216     MOVLW KEY_4
                      00217     MOVWF CORNIO_INPUT_VAL
                      00218     GOTO CORNIO_EXIT    
                      00219 CORNIO_MOV5:
                      00220     MOVLW KEY_5
                      00221     MOVWF CORNIO_INPUT_VAL
                      00222     GOTO CORNIO_EXIT
                      00223 CORNIO_MOV6:
                      00224     MOVLW KEY_6
                      00225     MOVWF CORNIO_INPUT_VAL
                      00226     GOTO CORNIO_EXIT
                      00227 CORNIO_MOV7:
                      00228     MOVLW KEY_7
                      00229     MOVWF CORNIO_INPUT_VAL
                      00230     GOTO CORNIO_EXIT
                      00231 CORNIO_MOV8:
                      00232     MOVLW KEY_8
                      00233     MOVWF CORNIO_INPUT_VAL
                      00234     GOTO CORNIO_EXIT
                      00235 CORNIO_MOV9:
                      00236     MOVLW KEY_9
                      00237     MOVWF CORNIO_INPUT_VAL
                      00238     GOTO CORNIO_EXIT
                      00239 
                      00240 CORNIO_EXIT:
                      00241     DELAY_MS D'100'
                      00242     RETURN  
MPASM 5.87                          MAIN.ASM   6-6-2020  3:57:00         PAGE 12


LOC  OBJECT CODE     LINE SOURCE TEXT
  VALUE

                      00243     
                      00244     #ENDIF
                      00245     ENDM
                      00246     
                      00247 #ENDIF
                      00248 
                      00249 
                      00250 
                      00004 #include "display.inc"
                      00001 #IFNDEF CORNIO_DISPLAY_HEADER
                      00002 #DEFINE CORNIO_DISPLAY_HEADER  
                      00003  
                      00004 #INCLUDE "lib.inc"
                      00205 #IFNDEF CORNIO_BASE
                      00206 #DEFINE CORNIO_BASE
                      00207 
                      00208 #include "p16f877a.inc"    
                      00209     
                      00210  LIB_VARS MACRO       
                      00211  CORNIO_DELAY_FT1   RES        1
                      00212  CORNIO_DELAY_FT2   RES        1  
                      00213  CORNIO_DELAY_FT3   RES        1
                      00214  CORNIO_DELAY_FT4   RES        1  
                      00215  ENDM   
                      00216     
                      00217 BANK0 MACRO
                      00218  BCF STATUS, RP1
                      00219  BCF STATUS, RP0
                      00220  ENDM
                      00221 
                      00222 BANK1 MACRO
                      00223  BCF STATUS, RP1
                      00224  BSF STATUS, RP0
                      00225  ENDM
                      00226 
                      00227 BANK2 MACRO
                      00228  BSF STATUS, RP1
                      00229  BCF STATUS, RP0
                      00230  ENDM
                      00231 
                      00232 BANK3 MACRO
                      00233  BSF STATUS, RP1
                      00234  BSF STATUS, RP0
                      00235  ENDM
                      00236  
                      00237 CMPFL MACRO FILE,LITERAL   ; COMPARE FILE TO LITERAL
                      00238  MOVF FILE,W
                      00239  SUBLW LITERAL
                      00240  ENDM
                      00241  
                      00242 CMPFF MACRO FILE1,FILE2     ; COMPARE FILE TO FILE
                      00243  MOVF FILE1,W
                      00244  SUBWF FILE2
MPASM 5.87                          MAIN.ASM   6-6-2020  3:57:00         PAGE 13


LOC  OBJECT CODE     LINE SOURCE TEXT
  VALUE

                      00245  ENDM
                      00246  
                      00247 MOVFF MACRO FILE1,FILE2     ; MOVE FILE TO FILE
                      00248  MOVF FILE1,W
                      00249  MOVWF FILE2
                      00250  ENDM
                      00251 
                      00252 MOVLF MACRO LITERAL,FILE    ; MOVE LITERAL TO FILE
                      00253  MOVLW LITERAL
                      00254  MOVWF FILE
                      00255  ENDM
                      00256  
                      00257 JE MACRO IF_TRUE            ; JUMP EQUAL
                      00258  BTFSC STATUS, Z
                      00259  GOTO IF_TRUE
                      00260  ENDM
                      00261 
                      00262 JNE MACRO IF_TRUE           ; JUMP NOT EQUAL
                      00263  BTFSS STATUS, Z
                      00264  GOTO IF_TRUE
                      00265  ENDM
                      00266  
                      00267 DELAY_MS MACRO T            ; DELAY IN MS
                      00268     MOVLW D'165' 
                      00269     MOVWF CORNIO_DELAY_FT1 
                      00270     
                      00271     MOVLW T 
                      00272     MOVWF CORNIO_DELAY_FT2
                      00273     
                      00274     DECFSZ CORNIO_DELAY_FT1,1 
                      00275     GOTO $-1 
                      00276     DECFSZ CORNIO_DELAY_FT2,1
                      00277     GOTO $-3
                      00278  ENDM
                      00279  
                      00280  DELAY_S MACRO T            ; DELAY IN MS
                      00281     MOVLW D'165' 
                      00282     MOVWF CORNIO_DELAY_FT1 
                      00283     
                      00284     MOVLW D'255' 
                      00285     MOVWF CORNIO_DELAY_FT2
                      00286     
                      00287     MOVLW D'4'
                      00288     MOVWF CORNIO_DELAY_FT3
                      00289     
                      00290     MOVLW T
                      00291     MOVWF CORNIO_DELAY_FT4
                      00292     
                      00293     DECFSZ CORNIO_DELAY_FT1,1 
                      00294     GOTO $-1 
                      00295     DECFSZ CORNIO_DELAY_FT2,1
                      00296     GOTO $-3
                      00297     DECFSZ CORNIO_DELAY_FT3,1
MPASM 5.87                          MAIN.ASM   6-6-2020  3:57:00         PAGE 14


LOC  OBJECT CODE     LINE SOURCE TEXT
  VALUE

                      00298     GOTO $-5
                      00299     DECFSZ CORNIO_DELAY_FT4,1
                      00300     GOTO $-7
                      00301  ENDM
                      00302  
                      00303  
                      00304  #ENDIF CORNIO_BASE
                      00305 
                      00306 
                      00005  
                      00006 DISPLAY_VARS MACRO       
                      00007 CORNIO_DISPLAY_DISP             RES            1
                      00008 CORNIO_DISPLAY_VALUE            RES            1  
                      00009 CORNIO_DISPLAY_TO_DRAW_DISP     RES            1
                      00010 CORNIO_DISPLAY_TO_DRAW_VALUE    RES            1
                      00011  ENDM
                      00012  
  00000004            00013 DISP_1   EQU  B'00000100'
  00000008            00014 DISP_2   EQU  B'00001000'
  00000010            00015 DISP_3   EQU  B'00010000'
  00000020            00016 DISP_4   EQU  B'00100000'
                      00017 
                      00018          
  0000003F            00019 SHOW_0   EQU  B'00111111'
  00000006            00020 SHOW_1   EQU  B'00000110'
  0000005B            00021 SHOW_2   EQU  B'01011011'
  0000004F            00022 SHOW_3   EQU  B'01001111'
  00000066            00023 SHOW_4   EQU  B'01100110'
  0000006D            00024 SHOW_5   EQU  B'01101101'
  0000007D            00025 SHOW_6   EQU  B'01111101'
  00000027            00026 SHOW_7   EQU  B'00100111'
  0000007F            00027 SHOW_8   EQU  B'01111111'
  00000067            00028 SHOW_9   EQU  B'01100111'
                      00029          
                      00030 CORNIO_DISPLAY MACRO DISP,VALUE
                      00031     MOVFF DISP,PORTA    
                      00032     MOVLF VALUE,PORTD
                      00033     DELAY_MS D'2'
                      00034     ENDM
                      00035     
Warning[207]: Found label after column 1. (DISPLAY_F)
                      00036  DISPLAY_F MACRO DISPLAY,FILE
                      00037     MOVLF DISPLAY,CORNIO_DISPLAY_TO_DRAW_DISP
                      00038     MOVFF FILE,CORNIO_DISPLAY_TO_DRAW_VALUE
                      00039     CALL  CORNIO_DISPLAY_F_DEF     
                      00040     ENDM 
                      00041          
                      00042 DEFINE_DISPLAY_FUNCS MACRO
                      00043  #IFNDEF DEFINE_DISPLAY_FUNC_HEAD
                      00044  #DEFINE DEFINE_DISPLAY_FUNC_HEAD
                      00045  
                      00046    ENABLE_DISPLAY:
                      00047         BANK1
MPASM 5.87                          MAIN.ASM   6-6-2020  3:57:00         PAGE 15


LOC  OBJECT CODE     LINE SOURCE TEXT
  VALUE

                      00048         MOVLW   B'00001000'
                      00049         MOVWF   TRISB
                      00050         CLRF    TRISD
                      00051         CLRF    TRISA
                      00052         BANK0
                      00053         CLRF PORTB 
                      00054         CLRF PORTD
                      00055         RETURN
                      00056     
                      00057    CORNIO_DISPLAY_F_DEF:
                      00058         CMPFL CORNIO_DISPLAY_TO_DRAW_VALUE,D'9'
                      00059         JE CORNIO_DRAW_9
                      00060         CMPFL CORNIO_DISPLAY_TO_DRAW_VALUE,D'8'
                      00061         JE CORNIO_DRAW_8
                      00062         CMPFL CORNIO_DISPLAY_TO_DRAW_VALUE,D'7'
                      00063         JE CORNIO_DRAW_7
                      00064         CMPFL CORNIO_DISPLAY_TO_DRAW_VALUE,D'6'
                      00065         JE CORNIO_DRAW_6
                      00066         CMPFL CORNIO_DISPLAY_TO_DRAW_VALUE,D'5'
                      00067         JE CORNIO_DRAW_5
                      00068         CMPFL CORNIO_DISPLAY_TO_DRAW_VALUE,D'4'
                      00069         JE CORNIO_DRAW_4
                      00070         CMPFL CORNIO_DISPLAY_TO_DRAW_VALUE,D'3'
                      00071         JE CORNIO_DRAW_3
                      00072         CMPFL CORNIO_DISPLAY_TO_DRAW_VALUE,D'2'
                      00073         JE CORNIO_DRAW_2
                      00074         CMPFL CORNIO_DISPLAY_TO_DRAW_VALUE,D'1'
                      00075         JE CORNIO_DRAW_1
                      00076         CMPFL CORNIO_DISPLAY_TO_DRAW_VALUE,D'0'
                      00077         JE CORNIO_DRAW_0
                      00078         
                      00079         GOTO CORNIO_DISPLAY_F_DEF_EXIT
                      00080  CORNIO_DRAW_9:
                      00081         CORNIO_DISPLAY CORNIO_DISPLAY_TO_DRAW_DISP,SHOW_9
                      00082         GOTO CORNIO_DISPLAY_F_DEF_EXIT
                      00083  CORNIO_DRAW_8:
                      00084         CORNIO_DISPLAY CORNIO_DISPLAY_TO_DRAW_DISP,SHOW_8
                      00085         GOTO CORNIO_DISPLAY_F_DEF_EXIT
                      00086  CORNIO_DRAW_7:
                      00087         CORNIO_DISPLAY CORNIO_DISPLAY_TO_DRAW_DISP,SHOW_7
                      00088         GOTO CORNIO_DISPLAY_F_DEF_EXIT
                      00089  CORNIO_DRAW_6:
                      00090         CORNIO_DISPLAY CORNIO_DISPLAY_TO_DRAW_DISP,SHOW_6
                      00091         GOTO CORNIO_DISPLAY_F_DEF_EXIT
                      00092  CORNIO_DRAW_5:
                      00093         CORNIO_DISPLAY CORNIO_DISPLAY_TO_DRAW_DISP,SHOW_5
                      00094         GOTO CORNIO_DISPLAY_F_DEF_EXIT
                      00095  CORNIO_DRAW_4:
                      00096         CORNIO_DISPLAY CORNIO_DISPLAY_TO_DRAW_DISP,SHOW_4
                      00097         GOTO CORNIO_DISPLAY_F_DEF_EXIT
                      00098  CORNIO_DRAW_3:
                      00099         CORNIO_DISPLAY CORNIO_DISPLAY_TO_DRAW_DISP,SHOW_3
                      00100         GOTO CORNIO_DISPLAY_F_DEF_EXIT
MPASM 5.87                          MAIN.ASM   6-6-2020  3:57:00         PAGE 16


LOC  OBJECT CODE     LINE SOURCE TEXT
  VALUE

                      00101  CORNIO_DRAW_2:
                      00102         CORNIO_DISPLAY CORNIO_DISPLAY_TO_DRAW_DISP,SHOW_2
                      00103         GOTO CORNIO_DISPLAY_F_DEF_EXIT
                      00104  CORNIO_DRAW_1:
                      00105         CORNIO_DISPLAY CORNIO_DISPLAY_TO_DRAW_DISP,SHOW_1
                      00106         GOTO CORNIO_DISPLAY_F_DEF_EXIT
                      00107  CORNIO_DRAW_0:
                      00108         CORNIO_DISPLAY CORNIO_DISPLAY_TO_DRAW_DISP,SHOW_0
                      00109         GOTO CORNIO_DISPLAY_F_DEF_EXIT
                      00110  CORNIO_DISPLAY_F_DEF_EXIT:
                      00111     RETURN
                      00112     
                      00113     
                      00114     #ENDIF
                      00115  ENDM
                      00116          
                      00117 
                      00118 #ENDIF
                      00005 #include "tela_app.inc"
                      00001 #ifndef TELA_AP_INC
                      00002 #define TELA_AP_INC
                      00003 
                      00004 #include "lib.inc"
                      00307 #IFNDEF CORNIO_BASE
                      00308 #DEFINE CORNIO_BASE
                      00309 
                      00310 #include "p16f877a.inc"    
                      00311     
                      00312  LIB_VARS MACRO       
                      00313  CORNIO_DELAY_FT1   RES        1
                      00314  CORNIO_DELAY_FT2   RES        1  
                      00315  CORNIO_DELAY_FT3   RES        1
                      00316  CORNIO_DELAY_FT4   RES        1  
                      00317  ENDM   
                      00318     
                      00319 BANK0 MACRO
                      00320  BCF STATUS, RP1
                      00321  BCF STATUS, RP0
                      00322  ENDM
                      00323 
                      00324 BANK1 MACRO
                      00325  BCF STATUS, RP1
                      00326  BSF STATUS, RP0
                      00327  ENDM
                      00328 
                      00329 BANK2 MACRO
                      00330  BSF STATUS, RP1
                      00331  BCF STATUS, RP0
                      00332  ENDM
                      00333 
                      00334 BANK3 MACRO
                      00335  BSF STATUS, RP1
                      00336  BSF STATUS, RP0
MPASM 5.87                          MAIN.ASM   6-6-2020  3:57:00         PAGE 17


LOC  OBJECT CODE     LINE SOURCE TEXT
  VALUE

                      00337  ENDM
                      00338  
                      00339 CMPFL MACRO FILE,LITERAL   ; COMPARE FILE TO LITERAL
                      00340  MOVF FILE,W
                      00341  SUBLW LITERAL
                      00342  ENDM
                      00343  
                      00344 CMPFF MACRO FILE1,FILE2     ; COMPARE FILE TO FILE
                      00345  MOVF FILE1,W
                      00346  SUBWF FILE2
                      00347  ENDM
                      00348  
                      00349 MOVFF MACRO FILE1,FILE2     ; MOVE FILE TO FILE
                      00350  MOVF FILE1,W
                      00351  MOVWF FILE2
                      00352  ENDM
                      00353 
                      00354 MOVLF MACRO LITERAL,FILE    ; MOVE LITERAL TO FILE
                      00355  MOVLW LITERAL
                      00356  MOVWF FILE
                      00357  ENDM
                      00358  
                      00359 JE MACRO IF_TRUE            ; JUMP EQUAL
                      00360  BTFSC STATUS, Z
                      00361  GOTO IF_TRUE
                      00362  ENDM
                      00363 
                      00364 JNE MACRO IF_TRUE           ; JUMP NOT EQUAL
                      00365  BTFSS STATUS, Z
                      00366  GOTO IF_TRUE
                      00367  ENDM
                      00368  
                      00369 DELAY_MS MACRO T            ; DELAY IN MS
                      00370     MOVLW D'165' 
                      00371     MOVWF CORNIO_DELAY_FT1 
                      00372     
                      00373     MOVLW T 
                      00374     MOVWF CORNIO_DELAY_FT2
                      00375     
                      00376     DECFSZ CORNIO_DELAY_FT1,1 
                      00377     GOTO $-1 
                      00378     DECFSZ CORNIO_DELAY_FT2,1
                      00379     GOTO $-3
                      00380  ENDM
                      00381  
                      00382  DELAY_S MACRO T            ; DELAY IN MS
                      00383     MOVLW D'165' 
                      00384     MOVWF CORNIO_DELAY_FT1 
                      00385     
                      00386     MOVLW D'255' 
                      00387     MOVWF CORNIO_DELAY_FT2
                      00388     
                      00389     MOVLW D'4'
MPASM 5.87                          MAIN.ASM   6-6-2020  3:57:00         PAGE 18


LOC  OBJECT CODE     LINE SOURCE TEXT
  VALUE

                      00390     MOVWF CORNIO_DELAY_FT3
                      00391     
                      00392     MOVLW T
                      00393     MOVWF CORNIO_DELAY_FT4
                      00394     
                      00395     DECFSZ CORNIO_DELAY_FT1,1 
                      00396     GOTO $-1 
                      00397     DECFSZ CORNIO_DELAY_FT2,1
                      00398     GOTO $-3
                      00399     DECFSZ CORNIO_DELAY_FT3,1
                      00400     GOTO $-5
                      00401     DECFSZ CORNIO_DELAY_FT4,1
                      00402     GOTO $-7
                      00403  ENDM
                      00404  
                      00405  
                      00406  #ENDIF CORNIO_BASE
                      00407 
                      00408 
                      00005 
Warning[207]: Found label after column 1. (TELAS_DEF)
                      00006    TELAS_DEF MACRO
                      00007      TELA_AP:                                                                   ;Exibe uma tela com os n
                            omes dos desenvolvedores no inicio do jogo
                      00008         CALL LCD_ENABLE
                      00009         LCD_CMD L_CLR
                      00010         LCD_CMD L_L1    ;LINHA 1
                      00011         LCD_DAT D'42'
                      00012         LCD_DAT D'42'
                      00013         LCD_DAT D'42'
                      00014         LCD_DAT D'42'
                      00015         LCD_DAT D'42'
                      00016         LCD_DAT D'42'
                      00017         LCD_DAT D'42'
                      00018         LCD_DAT D'42'
                      00019         LCD_DAT D'42'
                      00020         LCD_DAT D'42'
                      00021         LCD_DAT D'42'
                      00022         LCD_DAT D'42'
                      00023         LCD_DAT D'42'
                      00024         LCD_DAT D'42'
                      00025         LCD_DAT D'42'
                      00026         LCD_DAT D'42'
                      00027         
                      00028         LCD_CMD L_L3    ;LINHA 4
                      00029         LCD_DAT '*'     ;DESENHA *
                      00030         LCD_DAT ' '     ;DESENHA ' '
                      00031         LCD_DAT 'R'     ;DESENHA R
                      00032         LCD_DAT 'U'     ;DESENHA U
                      00033         LCD_DAT 'A'     ;DESENHA A
                      00034         LCD_DAT 'N'     ;DESENHA N
                      00035         LCD_DAT ' '     ;DESENHA ' '
                      00036         LCD_DAT 'A'     ;DESENHA A
MPASM 5.87                          MAIN.ASM   6-6-2020  3:57:00         PAGE 19


LOC  OBJECT CODE     LINE SOURCE TEXT
  VALUE

                      00037         LCD_DAT 'Z'     ;DESENHA Z
                      00038         LCD_DAT 'E'     ;DESENHA E
                      00039         LCD_DAT 'V'     ;DESENHA V
                      00040         LCD_DAT 'E'     ;DESENHA E
                      00041         LCD_DAT 'D'     ;DESENHA D
                      00042         LCD_DAT 'O'     ;DESENHA O
                      00043         LCD_DAT ' '     ;DESENHA ' '
                      00044         LCD_DAT '*'     ;DESENHA *
                      00045         
                      00046         LCD_CMD L_L2    ;LINHA 4
                      00047         LCD_DAT '*'     ;DESENHA *
                      00048         LCD_DAT ' '     ;DESENHA ' '
                      00049         LCD_DAT 'J'     ;DESENHA J
                      00050         LCD_DAT 'A'     ;DESENHA A
                      00051         LCD_DAT 'N'     ;DESENHA N
                      00052         LCD_DAT 'D'     ;DESENHA D
                      00053         LCD_DAT 'E'     ;DESENHA E
                      00054         LCD_DAT 'R'     ;DESENHA R
                      00055         LCD_DAT ' '     ;DESENHA ' '
                      00056         LCD_DAT 'S'     ;DESENHA S
                      00057         LCD_DAT 'I'     ;DESENHA I
                      00058         LCD_DAT 'L'     ;DESENHA L
                      00059         LCD_DAT 'V'     ;DESENHA V
                      00060         LCD_DAT 'A'     ;DESENHA A
                      00061         LCD_DAT ' '     ;DESENHA ' '
                      00062         LCD_DAT '*'     ;DESENHA *
                      00063         
                      00064         LCD_CMD L_L4    ;LINHA 4
                      00065         LCD_DAT D'42'
                      00066         LCD_DAT D'42'
                      00067         LCD_DAT D'42'
                      00068         LCD_DAT D'42'
                      00069         LCD_DAT D'42'
                      00070         LCD_DAT D'42'
                      00071         LCD_DAT D'42'
                      00072         LCD_DAT D'42'
                      00073         LCD_DAT D'42'
                      00074         LCD_DAT D'42'
                      00075         LCD_DAT D'42'
                      00076         LCD_DAT D'42'
                      00077         LCD_DAT D'42'
                      00078         LCD_DAT D'42'
                      00079         LCD_DAT D'42'
                      00080         LCD_DAT D'42'
                      00081         
                      00082         RETURN
                      00083         
                      00084     TELA_INSTRUCOES:                                                            ; EXIBE INSTRUES DO JO
                            GO
                      00085         CALL LCD_ENABLE
                      00086         LCD_CMD L_CLR
                      00087         LCD_CMD L_L1    ;LINHA 1
                      00088         LCD_DAT D'42'
MPASM 5.87                          MAIN.ASM   6-6-2020  3:57:00         PAGE 20


LOC  OBJECT CODE     LINE SOURCE TEXT
  VALUE

                      00089         LCD_DAT D'42'
                      00090         LCD_DAT D'42'
                      00091         LCD_DAT D'42'
                      00092         LCD_DAT D'42'
                      00093         LCD_DAT D'42'
                      00094         LCD_DAT D'42'
                      00095         LCD_DAT D'42'
                      00096         LCD_DAT D'42'
                      00097         LCD_DAT D'42'
                      00098         LCD_DAT D'42'
                      00099         LCD_DAT D'42'
                      00100         LCD_DAT D'42'
                      00101         LCD_DAT D'42'
                      00102         LCD_DAT D'42'
                      00103         LCD_DAT D'42'
                      00104         
                      00105         LCD_CMD L_L2    ;LINHA 4
                      00106         LCD_DAT '*'     ;DESENHA *
                      00107         LCD_DAT ' '     ;DESENHA ' '
                      00108         LCD_DAT ' '     ;DESENHA D
                      00109         LCD_DAT ' '     ;DESENHA O
                      00110         LCD_DAT 'A'     ;DESENHA R
                      00111         LCD_DAT 'P'     ;DESENHA U
                      00112         LCD_DAT 'E'     ;DESENHA A
                      00113         LCD_DAT 'R'     ;DESENHA N
                      00114         LCD_DAT 'T'     ;DESENHA ' '
                      00115         LCD_DAT 'E'     ;DESENHA A
                      00116         LCD_DAT ' '     ;DESENHA Z
                      00117         LCD_DAT '5'     ;DESENHA E
                      00118         LCD_DAT ' '     ;DESENHA V
                      00119         LCD_DAT ' '     ;DESENHA E
                      00120         LCD_DAT ' '     ;DESENHA ' '
                      00121         LCD_DAT '*'     ;DESENHA *
                      00122         
                      00123         LCD_CMD L_L3    ;LINHA 4
                      00124         LCD_DAT '*'     ;DESENHA *
                      00125         LCD_DAT ' '     ;DESENHA D
                      00126         LCD_DAT ' '     ;DESENHA ' '
                      00127         LCD_DAT 'P'     ;DESENHA R
                      00128         LCD_DAT 'A'     ;DESENHA U
                      00129         LCD_DAT 'R'     ;DESENHA A
                      00130         LCD_DAT 'A'     ;DESENHA N
                      00131         LCD_DAT ' '     ;DESENHA ' '
                      00132         LCD_DAT 'J'     ;DESENHA A
                      00133         LCD_DAT 'O'     ;DESENHA Z
                      00134         LCD_DAT 'G'     ;DESENHA E
                      00135         LCD_DAT 'A'     ;DESENHA V
                      00136         LCD_DAT 'R'     ;DESENHA E
                      00137         LCD_DAT ' '     ;DESENHA O
                      00138         LCD_DAT ' '     ;DESENHA ' '
                      00139         LCD_DAT '*'     ;DESENHA *
                      00140         
                      00141         LCD_CMD L_L4    ;LINHA 4
MPASM 5.87                          MAIN.ASM   6-6-2020  3:57:00         PAGE 21


LOC  OBJECT CODE     LINE SOURCE TEXT
  VALUE

                      00142         LCD_DAT D'42'
                      00143         LCD_DAT D'42'
                      00144         LCD_DAT D'42'
                      00145         LCD_DAT D'42'
                      00146         LCD_DAT D'42'
                      00147         LCD_DAT D'42'
                      00148         LCD_DAT D'42'
                      00149         LCD_DAT D'42'
                      00150         LCD_DAT D'42'
                      00151         LCD_DAT D'42'
                      00152         LCD_DAT D'42'
                      00153         LCD_DAT D'42'
                      00154         LCD_DAT D'42'
                      00155         LCD_DAT D'42'
                      00156         LCD_DAT D'42'
                      00157         LCD_DAT D'42'
                      00158         
                      00159         RETURN
                      00160         ENDM
                      00161     
                      00162     
                      00163 #endif
                      00164 
                      00165 
                      00006 #include "tela_game.inc"
                      00001 #IFNDEF TELA_GAME_HEADER
                      00002 #DEFINE TELA_GAME_HEADER
                      00003     
                      00004 #DEFINE H +1
                      00005 #DEFINE L 
                      00006 
                      00007 #INCLUDE "lib.inc"    
                      00409 #IFNDEF CORNIO_BASE
                      00410 #DEFINE CORNIO_BASE
                      00411 
                      00412 #include "p16f877a.inc"    
                      00413     
                      00414  LIB_VARS MACRO       
                      00415  CORNIO_DELAY_FT1   RES        1
                      00416  CORNIO_DELAY_FT2   RES        1  
                      00417  CORNIO_DELAY_FT3   RES        1
                      00418  CORNIO_DELAY_FT4   RES        1  
                      00419  ENDM   
                      00420     
                      00421 BANK0 MACRO
                      00422  BCF STATUS, RP1
                      00423  BCF STATUS, RP0
                      00424  ENDM
                      00425 
                      00426 BANK1 MACRO
                      00427  BCF STATUS, RP1
                      00428  BSF STATUS, RP0
                      00429  ENDM
MPASM 5.87                          MAIN.ASM   6-6-2020  3:57:00         PAGE 22


LOC  OBJECT CODE     LINE SOURCE TEXT
  VALUE

                      00430 
                      00431 BANK2 MACRO
                      00432  BSF STATUS, RP1
                      00433  BCF STATUS, RP0
                      00434  ENDM
                      00435 
                      00436 BANK3 MACRO
                      00437  BSF STATUS, RP1
                      00438  BSF STATUS, RP0
                      00439  ENDM
                      00440  
                      00441 CMPFL MACRO FILE,LITERAL   ; COMPARE FILE TO LITERAL
                      00442  MOVF FILE,W
                      00443  SUBLW LITERAL
                      00444  ENDM
                      00445  
                      00446 CMPFF MACRO FILE1,FILE2     ; COMPARE FILE TO FILE
                      00447  MOVF FILE1,W
                      00448  SUBWF FILE2
                      00449  ENDM
                      00450  
                      00451 MOVFF MACRO FILE1,FILE2     ; MOVE FILE TO FILE
                      00452  MOVF FILE1,W
                      00453  MOVWF FILE2
                      00454  ENDM
                      00455 
                      00456 MOVLF MACRO LITERAL,FILE    ; MOVE LITERAL TO FILE
                      00457  MOVLW LITERAL
                      00458  MOVWF FILE
                      00459  ENDM
                      00460  
                      00461 JE MACRO IF_TRUE            ; JUMP EQUAL
                      00462  BTFSC STATUS, Z
                      00463  GOTO IF_TRUE
                      00464  ENDM
                      00465 
                      00466 JNE MACRO IF_TRUE           ; JUMP NOT EQUAL
                      00467  BTFSS STATUS, Z
                      00468  GOTO IF_TRUE
                      00469  ENDM
                      00470  
                      00471 DELAY_MS MACRO T            ; DELAY IN MS
                      00472     MOVLW D'165' 
                      00473     MOVWF CORNIO_DELAY_FT1 
                      00474     
                      00475     MOVLW T 
                      00476     MOVWF CORNIO_DELAY_FT2
                      00477     
                      00478     DECFSZ CORNIO_DELAY_FT1,1 
                      00479     GOTO $-1 
                      00480     DECFSZ CORNIO_DELAY_FT2,1
                      00481     GOTO $-3
                      00482  ENDM
MPASM 5.87                          MAIN.ASM   6-6-2020  3:57:00         PAGE 23


LOC  OBJECT CODE     LINE SOURCE TEXT
  VALUE

                      00483  
                      00484  DELAY_S MACRO T            ; DELAY IN MS
                      00485     MOVLW D'165' 
                      00486     MOVWF CORNIO_DELAY_FT1 
                      00487     
                      00488     MOVLW D'255' 
                      00489     MOVWF CORNIO_DELAY_FT2
                      00490     
                      00491     MOVLW D'4'
                      00492     MOVWF CORNIO_DELAY_FT3
                      00493     
                      00494     MOVLW T
                      00495     MOVWF CORNIO_DELAY_FT4
                      00496     
                      00497     DECFSZ CORNIO_DELAY_FT1,1 
                      00498     GOTO $-1 
                      00499     DECFSZ CORNIO_DELAY_FT2,1
                      00500     GOTO $-3
                      00501     DECFSZ CORNIO_DELAY_FT3,1
                      00502     GOTO $-5
                      00503     DECFSZ CORNIO_DELAY_FT4,1
                      00504     GOTO $-7
                      00505  ENDM
                      00506  
                      00507  
                      00508  #ENDIF CORNIO_BASE
                      00509 
                      00510 
                      00008 #INCLUDE "lcd.inc" 
                      00112 #IFNDEF CORNIO_LCD
                      00113 #DEFINE CORNIO_LCD
                      00114     
                      00115 #include "lib.inc"
                      00116     
                      00117 #define LENA  RE1
                      00118 #define LDAT  RE2
                      00119 #define LPORT PORTD 
                      00120     
                      00121 L_ON  EQU       B'00001111'
                      00122 L_OFF EQU       B'00001000'
                      00123 L_CLR EQU       B'00000001'
                      00124 L_L1  EQU       B'10000000'
                      00125 L_L2  EQU       B'11000000'
                      00126 L_L3  EQU       B'10010000'
                      00127 L_L4  EQU       B'11010000'
                      00128 L_CR  EQU       B'00001111'     
                      00129 L_NCR EQU       B'00001100'
                      00130 L_CFG EQU       B'00111000'
                      00131  
                      00132 L_SHIFT_LEFT  EQU       B'00011000'
                      00133 L_SHIFT_RIGHT EQU       B'00011100'
                      00134 
                      00135 
MPASM 5.87                          MAIN.ASM   6-6-2020  3:57:00         PAGE 24


LOC  OBJECT CODE     LINE SOURCE TEXT
  VALUE

                      00136 ;+++++++++++++++++++++++++++++++++++++++++++++++++++
                      00137 LCD_VARS MACRO       
                      00138  LCD_CMD_INPUT   RES           1
                      00139  LCD_DAT_INPUT   RES           1  
                      00140  ENDM
                      00141  
                      00142 ;++++++++++++++++++++++++++++++++++++++++++++++++++++
                      00143 LCD_CMD MACRO VAL
                      00144  MOVLW VAL
                      00145  MOVWF LCD_CMD_INPUT
                      00146  CALL DEF_LCD_CMD
                      00147  ENDM
                      00148  
                      00149 ;+++++++++++++++++++++++++++++++++++++++++++++++++++++
                      00150 LCD_DAT MACRO VAL
                      00151  MOVLW VAL
                      00152  MOVWF LCD_DAT_INPUT
                      00153  CALL DEF_LCD_DAT
                      00154  ENDM
                      00155  
                      00156 LCD_DAT_F MACRO VAL
                      00157  MOVF VAL,0
                      00158  MOVWF LCD_DAT_INPUT
                      00159  CALL DEF_LCD_DAT
                      00160  ENDM
                      00161  
                      00162  ;++++++++++++++++++++++++++++++++++++++++++++++++++++
                      00163 DEFINE_LCD_FUNCS MACRO
                      00164  LCD_ENABLE:
                      00165  BANK1
                      00166  CLRF TRISD
                      00167  CLRF TRISE
                      00168  BANK0
                      00169  RETURN
                      00170  
                      00171  LCD_CLEAR:
                      00172     LCD_CMD L_CLR
                      00173     RETURN
                      00174  
                      00175  DEF_LCD_CMD:                   ; void lcd_cmd(unsigned char val)
                      00176     BSF PORTE,LENA              ; LENA = 1;
                      00177  
                      00178     MOVF LCD_CMD_INPUT,0        ; lcd_wr(val);
                      00179     MOVWF LPORT                 ;
                      00180  
                      00181     BCF PORTE,LDAT              ; LDAT = 0;
                      00182     DELAY_MS D'3'               ; atraso_ms(3);
                      00183     BCF PORTE,LENA              ; LENA = 0;
                      00184     DELAY_MS D'3'               ; atraso_ms(3);
                      00185     BSF PORTE,LENA              ; LENA = 1;
                      00186     RETURN
                      00187  
                      00188  DEF_LCD_DAT:                   ; void lcd_dat(unsigned char val)
MPASM 5.87                          MAIN.ASM   6-6-2020  3:57:00         PAGE 25


LOC  OBJECT CODE     LINE SOURCE TEXT
  VALUE

                      00189     BSF PORTE,LENA              ; LENA = 1;
                      00190     
                      00191     MOVF LCD_DAT_INPUT,0        ; lcd_wr(val);
                      00192     MOVWF LPORT                 ;
                      00193     
                      00194     BSF PORTE,LDAT              ; LDAT = 1;
                      00195     DELAY_MS D'3'               ; atraso_ms(3);
                      00196     BCF PORTE,LENA              ; LENA = 0;
                      00197     DELAY_MS D'3'               ; atraso_ms(3);
                      00198     BSF PORTE,LENA              ; LENA = 1;
                      00199     RETURN
                      00200  
                      00201  LCD_INIT:
                      00202     CALL LCD_ENABLE
                      00203     BCF PORTE,LENA              ; LENA = 0;
                      00204     BCF PORTE,LDAT              ; LDAT = 0;
                      00205     DELAY_MS D'20'              ; atraso_ms(20);
                      00206     BSF PORTE,LENA              ; LENA = 1;
                      00207     
                      00208     LCD_CMD L_CFG               ; lcd_cmd(L_CFG);
                      00209     DELAY_MS D'5'               ; atraso_ms(5);
                      00210     LCD_CMD L_CFG               ; lcd_cmd(L_CFG);
                      00211     DELAY_MS D'1'               ; atraso_ms(1);
                      00212     LCD_CMD L_CFG               ; lcd_cmd(L_CFG); configura
                      00213     LCD_CMD L_OFF               ; lcd_cmd(L_OFF);
                      00214     LCD_CMD L_ON                ; lcd_cmd(L_ON);  liga
                      00215     LCD_CMD L_CLR               ; lcd_cmd(L_CLR); limpa
                      00216     LCD_CMD L_CFG               ; lcd_cmd(L_CFG); configura
                      00217     LCD_CMD L_L1                ; lcd_cmd(L_L1);
                      00218     RETURN
                      00219  
                      00220  ENDM
                      00221     
                      00222 #ENDIF
                      00009     
                      00010 TELA_GAME_VARS MACRO
                      00011   VOANDO            RES 1
                      00012   TEMPO_VOANDO      RES 1
                      00013   CENA_LINHA_4      RES 1
                      00014   CENA_LINHA_4_1    RES 1
                      00015   TEMP_PT_D         RES 1
                      00016   TEMP_PT_U         RES 1
                      00017   ENDM
                      00018 
                      00019 
Warning[207]: Found label after column 1. (DESENHA_PEDRA)
                      00020   DESENHA_PEDRA MACRO FILE,BIT
                      00021     BTFSS FILE,BIT
                      00022     GOTO $+2
                      00023     GOTO $+5
                      00024     LCD_DAT ' '
                      00025     GOTO $+4
                      00026     LCD_DAT '@'
MPASM 5.87                          MAIN.ASM   6-6-2020  3:57:00         PAGE 26


LOC  OBJECT CODE     LINE SOURCE TEXT
  VALUE

                      00027     NOP
                      00028     ENDM
                      00029   
                      00030 TELA_GAME_DEFINE_FUNCS MACRO
                      00031  
                      00032 TELA_GAME:
                      00033     CALL LCD_ENABLE
                      00034     MOVFF PONTUACAO_D,TEMP_PT_D
                      00035     MOVFF PONTUACAO_U,TEMP_PT_U
                      00036     MOVLW D'48'
                      00037     ADDWF TEMP_PT_D
                      00038     ADDWF TEMP_PT_U
                      00039     LCD_CMD L_L1
                      00040     LCD_DAT 'P'
                      00041     LCD_DAT 'O'
                      00042     LCD_DAT 'N'
                      00043     LCD_DAT 'T'
                      00044     LCD_DAT 'O'
                      00045     LCD_DAT 'S'
                      00046     LCD_DAT ':'
                      00047     LCD_DAT_F TEMP_PT_D
                      00048     LCD_DAT_F TEMP_PT_U
                      00049     
                      00050     CMPFL VOANDO,1
                      00051     JNE  PLAYER_ON_4
                      00052   
                      00053  PLAYER_ON_3:    
                      00054         LCD_CMD L_L3    ;LINHA 3
                      00055         LCD_DAT ' '
                      00056         LCD_DAT ' '
                      00057         LCD_DAT ' '
                      00058         LCD_DAT ' '
                      00059         LCD_DAT ' '
                      00060         LCD_DAT ' '
                      00061         LCD_DAT ' '
                      00062         LCD_DAT 'R'
                      00063         
                      00064         
                      00065         LCD_CMD L_L4    ;LINHA 4
                      00066         DESENHA_PEDRA CENA_LINHA_4_1,7
                      00067         DESENHA_PEDRA CENA_LINHA_4_1,6
                      00068         DESENHA_PEDRA CENA_LINHA_4_1,5
                      00069         DESENHA_PEDRA CENA_LINHA_4_1,4
                      00070         DESENHA_PEDRA CENA_LINHA_4_1,3
                      00071         DESENHA_PEDRA CENA_LINHA_4_1,2
                      00072         DESENHA_PEDRA CENA_LINHA_4_1,1
                      00073         DESENHA_PEDRA CENA_LINHA_4_1,0
                      00074         DESENHA_PEDRA CENA_LINHA_4,7
                      00075         DESENHA_PEDRA CENA_LINHA_4,6
                      00076         DESENHA_PEDRA CENA_LINHA_4,5
                      00077         DESENHA_PEDRA CENA_LINHA_4,4
                      00078         DESENHA_PEDRA CENA_LINHA_4,3
                      00079         DESENHA_PEDRA CENA_LINHA_4,2
MPASM 5.87                          MAIN.ASM   6-6-2020  3:57:00         PAGE 27


LOC  OBJECT CODE     LINE SOURCE TEXT
  VALUE

                      00080         DESENHA_PEDRA CENA_LINHA_4,1
                      00081         DESENHA_PEDRA CENA_LINHA_4,0
                      00082         
                      00083         GOTO END_PLAYER_DRAW
                      00084  PLAYER_ON_4:
                      00085         
                      00086         LCD_CMD L_L3    ;LINHA 3
                      00087         LCD_DAT ' '
                      00088         LCD_DAT ' '
                      00089         LCD_DAT ' '
                      00090         LCD_DAT ' '
                      00091         LCD_DAT ' '
                      00092         LCD_DAT ' '
                      00093         LCD_DAT ' '
                      00094         LCD_DAT ' '
                      00095         
                      00096         LCD_CMD L_L4
                      00097         DESENHA_PEDRA CENA_LINHA_4_1,7
                      00098         DESENHA_PEDRA CENA_LINHA_4_1,6
                      00099         DESENHA_PEDRA CENA_LINHA_4_1,5
                      00100         DESENHA_PEDRA CENA_LINHA_4_1,4
                      00101         DESENHA_PEDRA CENA_LINHA_4_1,3
                      00102         DESENHA_PEDRA CENA_LINHA_4_1,2
                      00103         DESENHA_PEDRA CENA_LINHA_4_1,1
                      00104         LCD_DAT 'R'
                      00105         DESENHA_PEDRA CENA_LINHA_4,7
                      00106         DESENHA_PEDRA CENA_LINHA_4,6
                      00107         DESENHA_PEDRA CENA_LINHA_4,5
                      00108         DESENHA_PEDRA CENA_LINHA_4,4
                      00109         DESENHA_PEDRA CENA_LINHA_4,3
                      00110         DESENHA_PEDRA CENA_LINHA_4,2
                      00111         DESENHA_PEDRA CENA_LINHA_4,1
                      00112         DESENHA_PEDRA CENA_LINHA_4,0
                      00113         GOTO END_PLAYER_DRAW
                      00114         
                      00115 END_PLAYER_DRAW:
                      00116     RETURN
                      00117  
                      00118  ENDM
                      00119     
                      00120 #ENDIF
                      00121 
                      00122 
                      00007     
2007   3F3B           00008  __CONFIG _FOSC_EXTRC & _WDTE_OFF & _PWRTE_OFF & _BOREN_OFF & _LVP_OFF & _CPD_OFF & _WRT_OFF & _CP_OFF
                      00009 
                      00010 GPR_VAR UDATA                                                                   ; INICIA AS VARIVEIS
Warning[207]: Found label after column 1. (ENTRADA)
0000                  00011  ENTRADA            RES 1
Warning[207]: Found label after column 1. (PONTUACAO_U)
0001                  00012  PONTUACAO_U        RES 1
Warning[207]: Found label after column 1. (PONTUACAO_D)
0002                  00013  PONTUACAO_D        RES 1
MPASM 5.87                          MAIN.ASM   6-6-2020  3:57:00         PAGE 28


LOC  OBJECT CODE     LINE SOURCE TEXT
  VALUE

Warning[207]: Found label after column 1. (JOGO_RODANDO)
0003                  00014  JOGO_RODANDO       RES 1
Warning[207]: Found label after column 1. (TIMER_COUNT)
0004                  00015  TIMER_COUNT        RES 1
Warning[207]: Found label after column 1. (TIMER_MOVE_PEDRA)
0005                  00016  TIMER_MOVE_PEDRA   RES 1           
                      00017  LIB_VARS
Warning[207]: Found label after column 1. (CORNIO_DELAY_FT1)
0006                      M  CORNIO_DELAY_FT1   RES        1
Warning[207]: Found label after column 1. (CORNIO_DELAY_FT2)
0007                      M  CORNIO_DELAY_FT2   RES        1  
Warning[207]: Found label after column 1. (CORNIO_DELAY_FT3)
0008                      M  CORNIO_DELAY_FT3   RES        1
Warning[207]: Found label after column 1. (CORNIO_DELAY_FT4)
0009                      M  CORNIO_DELAY_FT4   RES        1  
                      00018  LCD_VARS
Warning[207]: Found label after column 1. (LCD_CMD_INPUT)
000A                      M  LCD_CMD_INPUT   RES           1
Warning[207]: Found label after column 1. (LCD_DAT_INPUT)
000B                      M  LCD_DAT_INPUT   RES           1  
                      00019  DISPLAY_VARS
000C                      M CORNIO_DISPLAY_DISP             RES            1
000D                      M CORNIO_DISPLAY_VALUE            RES            1  
000E                      M CORNIO_DISPLAY_TO_DRAW_DISP     RES            1
000F                      M CORNIO_DISPLAY_TO_DRAW_VALUE    RES            1
                      00020  TELA_GAME_VARS
Warning[207]: Found label after column 1. (VOANDO)
0010                      M   VOANDO            RES 1
Warning[207]: Found label after column 1. (TEMPO_VOANDO)
0011                      M   TEMPO_VOANDO      RES 1
Warning[207]: Found label after column 1. (CENA_LINHA_4)
0012                      M   CENA_LINHA_4      RES 1
Warning[207]: Found label after column 1. (CENA_LINHA_4_1)
0013                      M   CENA_LINHA_4_1    RES 1
Warning[207]: Found label after column 1. (TEMP_PT_D)
0014                      M   TEMP_PT_D         RES 1
Warning[207]: Found label after column 1. (TEMP_PT_U)
0015                      M   TEMP_PT_U         RES 1
                      00021 
                      00022 
                      00023 RES_VECT  CODE    0x0000            
0000   2???           00024     GOTO    START                   
                      00025 
                      00026 ISR CODE 0X0004    
0004   190B           00027  BTFSC INTCON, TMR0IF   ;INTERRUPO DE TEMPO
0005   2???           00028  CALL TIMER_INT
0006   0009           00029  RETFIE
                      00030  
0007                  00031 TIMER_INT:
0007   110B           00032    BCF INTCON, TMR0IF
0008   307E           00033    MOVLW D'126'
Message[305]: Using default destination of 1 (file).
0009   0881           00034    MOVF TMR0
MPASM 5.87                          MAIN.ASM   6-6-2020  3:57:00         PAGE 29


LOC  OBJECT CODE     LINE SOURCE TEXT
  VALUE

                      00035   
                      00036    CMPFL JOGO_RODANDO,1
000A   08??               M  MOVF JOGO_RODANDO,W
000B   3C01               M  SUBLW 1
                      00037    JNE SKIP_INC_TEMPO_VOANDO
000C   1D03               M  BTFSS STATUS, Z
000D   2???               M  GOTO SKIP_INC_TEMPO_VOANDO
                      00038    
Message[305]: Using default destination of 1 (file).
000E   0A??           00039    INCF TIMER_MOVE_PEDRA
                      00040    CMPFL TIMER_MOVE_PEDRA,15
000F   08??               M  MOVF TIMER_MOVE_PEDRA,W
0010   3C15               M  SUBLW 15
                      00041    JNE SKIP_MOVE_PEDRA
0011   1D03               M  BTFSS STATUS, Z
0012   2???               M  GOTO SKIP_MOVE_PEDRA
                      00042    MOVLF 0,TIMER_MOVE_PEDRA
0013   3000               M  MOVLW 0
0014   00??               M  MOVWF TIMER_MOVE_PEDRA
                      00043    
0015   1B80           00044    BTFSC CENA_LINHA_4,7
0016   2???           00045    GOTO RESTART_MOVE
                      00046    
0017   0D??           00047    RLF CENA_LINHA_4,1
0018   0D??           00048    RLF CENA_LINHA_4_1,1
0019   2???           00049    GOTO SKIP_MOVE_PEDRA
                      00050    
001A                  00051 RESTART_MOVE:
                      00052    CMPFL VOANDO,1
001A   08??               M  MOVF VOANDO,W
001B   3C01               M  SUBLW 1
                      00053    JE RESTART_MOVE_CONT
001C   1903               M  BTFSC STATUS, Z
001D   2???               M  GOTO RESTART_MOVE_CONT
                      00054    MOVLF 0,JOGO_RODANDO
001E   3000               M  MOVLW 0
001F   00??               M  MOVWF JOGO_RODANDO
0020                  00055 RESTART_MOVE_CONT:   
                      00056    MOVLF D'1',CENA_LINHA_4_1
0020   3001               M  MOVLW D'1'
0021   00??               M  MOVWF CENA_LINHA_4_1
                      00057    MOVLF D'1',CENA_LINHA_4
0022   3001               M  MOVLW D'1'
0023   00??               M  MOVWF CENA_LINHA_4
0024   0D??           00058    RLF CENA_LINHA_4,1
0025   0D??           00059    RLF CENA_LINHA_4_1,1
                      00060    
0026                  00061 SKIP_MOVE_PEDRA:
                      00062     
                      00063    CMPFL VOANDO,0
0026   08??               M  MOVF VOANDO,W
0027   3C00               M  SUBLW 0
                      00064    JE SKIP_INC_TEMPO_VOANDO
MPASM 5.87                          MAIN.ASM   6-6-2020  3:57:00         PAGE 30


LOC  OBJECT CODE     LINE SOURCE TEXT
  VALUE

0028   1903               M  BTFSC STATUS, Z
0029   2???               M  GOTO SKIP_INC_TEMPO_VOANDO
Message[305]: Using default destination of 1 (file).
002A   0A??           00065    INCF TEMPO_VOANDO
                      00066    
                      00067    CMPFL TEMPO_VOANDO, 22
002B   08??               M  MOVF TEMPO_VOANDO,W
002C   3C22               M  SUBLW 22
                      00068    JNE SKIP_INC_TEMPO_VOANDO 
002D   1D03               M  BTFSS STATUS, Z
002E   2???               M  GOTO SKIP_INC_TEMPO_VOANDO
                      00069    MOVLF 0,VOANDO
002F   3000               M  MOVLW 0
0030   00??               M  MOVWF VOANDO
                      00070    MOVLF 0,TEMPO_VOANDO
0031   3000               M  MOVLW 0
0032   00??               M  MOVWF TEMPO_VOANDO
                      00071    
0033                  00072 SKIP_INC_TEMPO_VOANDO:   
                      00073  
Message[305]: Using default destination of 1 (file).
0033   0B??           00074    DECFSZ TIMER_COUNT
0034   0008           00075    RETURN
                      00076    
0035   303C           00077    MOVLW D'60'
0036   00??           00078    MOVWF TIMER_COUNT
                      00079    
                      00080    CMPFL JOGO_RODANDO,1
0037   08??               M  MOVF JOGO_RODANDO,W
0038   3C01               M  SUBLW 1
                      00081    JNE EXIT_TIMER
0039   1D03               M  BTFSS STATUS, Z
003A   2???               M  GOTO EXIT_TIMER
                      00082    
                      00083    CMPFL PONTUACAO_U,9
003B   08??               M  MOVF PONTUACAO_U,W
003C   3C09               M  SUBLW 9
                      00084    JNE SK_INC_PT_D
003D   1D03               M  BTFSS STATUS, Z
003E   2???               M  GOTO SK_INC_PT_D
                      00085    MOVLF 0,PONTUACAO_U
003F   3000               M  MOVLW 0
0040   00??               M  MOVWF PONTUACAO_U
Message[305]: Using default destination of 1 (file).
0041   0A??           00086    INCF PONTUACAO_D
0042   2???           00087    GOTO EXIT_TIMER
                      00088    
0043                  00089 SK_INC_PT_D:
Message[305]: Using default destination of 1 (file).
0043   0A??           00090    INCF PONTUACAO_U                                                             ; AUMENTA 1 PONTO POR SE
                            GUNDO
                      00091 
0044                  00092 EXIT_TIMER:
MPASM 5.87                          MAIN.ASM   6-6-2020  3:57:00         PAGE 31


LOC  OBJECT CODE     LINE SOURCE TEXT
  VALUE

0044   0008           00093    RETURN
                      00094 
                      00095 MAIN_PROG CODE                      
                      00096  
0000                  00097 DEFINE_FUNCS:                                                                   ; DECLARA AS FUNES DAS
                             BIBLIOTECAS
                      00098  DEFINE_LCD_FUNCS                                                               
Warning[207]: Found label after column 1. (LCD_ENABLE)
0000                      M  LCD_ENABLE:
                          M  BANK1
0000   1303               M  BCF STATUS, RP1
0001   1683               M  BSF STATUS, RP0
Message[302]: Register in operand not in bank 0.  Ensure that bank bits are correct.
0002   0188               M  CLRF TRISD
Message[302]: Register in operand not in bank 0.  Ensure that bank bits are correct.
0003   0189               M  CLRF TRISE
                          M  BANK0
0004   1303               M  BCF STATUS, RP1
0005   1283               M  BCF STATUS, RP0
0006   0008               M  RETURN
                          M  
Warning[207]: Found label after column 1. (LCD_CLEAR)
0007                      M  LCD_CLEAR:
                          M     LCD_CMD L_CLR
0007   3001               M  MOVLW L_CLR
0008   00??               M  MOVWF LCD_CMD_INPUT
0009   2???               M  CALL DEF_LCD_CMD
000A   0008               M     RETURN
                          M  
Warning[207]: Found label after column 1. (DEF_LCD_CMD)
000B                      M  DEF_LCD_CMD:                   ; void lcd_cmd(unsigned char val)
000B   1489               M     BSF PORTE,LENA              ; LENA = 1;
                          M  
000C   08??               M     MOVF LCD_CMD_INPUT,0        ; lcd_wr(val);
000D   0088               M     MOVWF LPORT                 ;
                          M  
000E   1109               M     BCF PORTE,LDAT              ; LDAT = 0;
                          M     DELAY_MS D'3'               ; atraso_ms(3);
000F   30A5               M     MOVLW D'165' 
0010   00??               M     MOVWF CORNIO_DELAY_FT1 
                          M     
0011   3003               M     MOVLW D'3' 
0012   00??               M     MOVWF CORNIO_DELAY_FT2
                          M     
0013   0B??               M     DECFSZ CORNIO_DELAY_FT1,1 
0014   2???               M     GOTO $-1 
0015   0B??               M     DECFSZ CORNIO_DELAY_FT2,1
0016   2???               M     GOTO $-3
0017   1089               M     BCF PORTE,LENA              ; LENA = 0;
                          M     DELAY_MS D'3'               ; atraso_ms(3);
0018   30A5               M     MOVLW D'165' 
0019   00??               M     MOVWF CORNIO_DELAY_FT1 
                          M     
MPASM 5.87                          MAIN.ASM   6-6-2020  3:57:00         PAGE 32


LOC  OBJECT CODE     LINE SOURCE TEXT
  VALUE

001A   3003               M     MOVLW D'3' 
001B   00??               M     MOVWF CORNIO_DELAY_FT2
                          M     
001C   0B??               M     DECFSZ CORNIO_DELAY_FT1,1 
001D   2???               M     GOTO $-1 
001E   0B??               M     DECFSZ CORNIO_DELAY_FT2,1
001F   2???               M     GOTO $-3
0020   1489               M     BSF PORTE,LENA              ; LENA = 1;
0021   0008               M     RETURN
                          M  
Warning[207]: Found label after column 1. (DEF_LCD_DAT)
0022                      M  DEF_LCD_DAT:                   ; void lcd_dat(unsigned char val)
0022   1489               M     BSF PORTE,LENA              ; LENA = 1;
                          M     
0023   08??               M     MOVF LCD_DAT_INPUT,0        ; lcd_wr(val);
0024   0088               M     MOVWF LPORT                 ;
                          M     
0025   1509               M     BSF PORTE,LDAT              ; LDAT = 1;
                          M     DELAY_MS D'3'               ; atraso_ms(3);
0026   30A5               M     MOVLW D'165' 
0027   00??               M     MOVWF CORNIO_DELAY_FT1 
                          M     
0028   3003               M     MOVLW D'3' 
0029   00??               M     MOVWF CORNIO_DELAY_FT2
                          M     
002A   0B??               M     DECFSZ CORNIO_DELAY_FT1,1 
002B   2???               M     GOTO $-1 
002C   0B??               M     DECFSZ CORNIO_DELAY_FT2,1
002D   2???               M     GOTO $-3
002E   1089               M     BCF PORTE,LENA              ; LENA = 0;
                          M     DELAY_MS D'3'               ; atraso_ms(3);
002F   30A5               M     MOVLW D'165' 
0030   00??               M     MOVWF CORNIO_DELAY_FT1 
                          M     
0031   3003               M     MOVLW D'3' 
0032   00??               M     MOVWF CORNIO_DELAY_FT2
                          M     
0033   0B??               M     DECFSZ CORNIO_DELAY_FT1,1 
0034   2???               M     GOTO $-1 
0035   0B??               M     DECFSZ CORNIO_DELAY_FT2,1
0036   2???               M     GOTO $-3
0037   1489               M     BSF PORTE,LENA              ; LENA = 1;
0038   0008               M     RETURN
                          M  
Warning[207]: Found label after column 1. (LCD_INIT)
0039                      M  LCD_INIT:
0039   2???               M     CALL LCD_ENABLE
003A   1089               M     BCF PORTE,LENA              ; LENA = 0;
003B   1109               M     BCF PORTE,LDAT              ; LDAT = 0;
                          M     DELAY_MS D'20'              ; atraso_ms(20);
003C   30A5               M     MOVLW D'165' 
003D   00??               M     MOVWF CORNIO_DELAY_FT1 
                          M     
MPASM 5.87                          MAIN.ASM   6-6-2020  3:57:00         PAGE 33


LOC  OBJECT CODE     LINE SOURCE TEXT
  VALUE

003E   3014               M     MOVLW D'20' 
003F   00??               M     MOVWF CORNIO_DELAY_FT2
                          M     
0040   0B??               M     DECFSZ CORNIO_DELAY_FT1,1 
0041   2???               M     GOTO $-1 
0042   0B??               M     DECFSZ CORNIO_DELAY_FT2,1
0043   2???               M     GOTO $-3
0044   1489               M     BSF PORTE,LENA              ; LENA = 1;
                          M     
                          M     LCD_CMD L_CFG               ; lcd_cmd(L_CFG);
0045   3038               M  MOVLW L_CFG
0046   00??               M  MOVWF LCD_CMD_INPUT
0047   2???               M  CALL DEF_LCD_CMD
                          M     DELAY_MS D'5'               ; atraso_ms(5);
0048   30A5               M     MOVLW D'165' 
0049   00??               M     MOVWF CORNIO_DELAY_FT1 
                          M     
004A   3005               M     MOVLW D'5' 
004B   00??               M     MOVWF CORNIO_DELAY_FT2
                          M     
004C   0B??               M     DECFSZ CORNIO_DELAY_FT1,1 
004D   2???               M     GOTO $-1 
004E   0B??               M     DECFSZ CORNIO_DELAY_FT2,1
004F   2???               M     GOTO $-3
                          M     LCD_CMD L_CFG               ; lcd_cmd(L_CFG);
0050   3038               M  MOVLW L_CFG
0051   00??               M  MOVWF LCD_CMD_INPUT
0052   2???               M  CALL DEF_LCD_CMD
                          M     DELAY_MS D'1'               ; atraso_ms(1);
0053   30A5               M     MOVLW D'165' 
0054   00??               M     MOVWF CORNIO_DELAY_FT1 
                          M     
0055   3001               M     MOVLW D'1' 
0056   00??               M     MOVWF CORNIO_DELAY_FT2
                          M     
0057   0B??               M     DECFSZ CORNIO_DELAY_FT1,1 
0058   2???               M     GOTO $-1 
0059   0B??               M     DECFSZ CORNIO_DELAY_FT2,1
005A   2???               M     GOTO $-3
                          M     LCD_CMD L_CFG               ; lcd_cmd(L_CFG); configura
005B   3038               M  MOVLW L_CFG
005C   00??               M  MOVWF LCD_CMD_INPUT
005D   2???               M  CALL DEF_LCD_CMD
                          M     LCD_CMD L_OFF               ; lcd_cmd(L_OFF);
005E   3008               M  MOVLW L_OFF
005F   00??               M  MOVWF LCD_CMD_INPUT
0060   2???               M  CALL DEF_LCD_CMD
                          M     LCD_CMD L_ON                ; lcd_cmd(L_ON);  liga
0061   300F               M  MOVLW L_ON
0062   00??               M  MOVWF LCD_CMD_INPUT
0063   2???               M  CALL DEF_LCD_CMD
                          M     LCD_CMD L_CLR               ; lcd_cmd(L_CLR); limpa
0064   3001               M  MOVLW L_CLR
MPASM 5.87                          MAIN.ASM   6-6-2020  3:57:00         PAGE 34


LOC  OBJECT CODE     LINE SOURCE TEXT
  VALUE

0065   00??               M  MOVWF LCD_CMD_INPUT
0066   2???               M  CALL DEF_LCD_CMD
                          M     LCD_CMD L_CFG               ; lcd_cmd(L_CFG); configura
0067   3038               M  MOVLW L_CFG
0068   00??               M  MOVWF LCD_CMD_INPUT
0069   2???               M  CALL DEF_LCD_CMD
                          M     LCD_CMD L_L1                ; lcd_cmd(L_L1);
006A   3080               M  MOVLW L_L1
006B   00??               M  MOVWF LCD_CMD_INPUT
006C   2???               M  CALL DEF_LCD_CMD
006D   0008               M     RETURN
                          M  
                      00099  DEFINE_INPUT_FUNCS ENTRADA
                          M #IFNDEF CORNIO_INPUT_FUNC_DEF
                          M #DEFINE CORNIO_INPUT_FUNC_DEF
                          M 
                          M 
006E                      M ENABLE_KEYBOARD:
                          M     BANK1
006E   1303               M  BCF STATUS, RP1
006F   1683               M  BSF STATUS, RP0
0070   300F               M      MOVLW B'00001111'
Message[302]: Register in operand not in bank 0.  Ensure that bank bits are correct.
0071   0085               M      MOVWF TRISA
Message[302]: Register in operand not in bank 0.  Ensure that bank bits are correct.
0072   0186               M     CLRF TRISB
0073   300F               M     MOVLW B'00001111'
Message[302]: Register in operand not in bank 0.  Ensure that bank bits are correct.
0074   0088               M     MOVWF TRISD
                          M     BANK0
0075   1303               M  BCF STATUS, RP1
0076   1283               M  BCF STATUS, RP0
0077   3000               M     MOVLW B'00000000'
0078   0086               M     MOVWF PORTB
0079   0008               M     RETURN
                          M     
Warning[207]: Found label after column 1. (CORNIO_INPUT_LOOP)
007A                      M  CORNIO_INPUT_LOOP:
                          M     BANK1
007A   1303               M  BCF STATUS, RP1
007B   1683               M  BSF STATUS, RP0
007C   300F               M      MOVLW B'00001111'
Message[302]: Register in operand not in bank 0.  Ensure that bank bits are correct.
007D   0085               M      MOVWF TRISA
Message[302]: Register in operand not in bank 0.  Ensure that bank bits are correct.
007E   0186               M     CLRF TRISB
007F   300F               M     MOVLW B'00001111'
Message[302]: Register in operand not in bank 0.  Ensure that bank bits are correct.
0080   0088               M     MOVWF TRISD
                          M     BANK0
0081   1303               M  BCF STATUS, RP1
0082   1283               M  BCF STATUS, RP0
0083   3000               M     MOVLW B'00000000'
MPASM 5.87                          MAIN.ASM   6-6-2020  3:57:00         PAGE 35


LOC  OBJECT CODE     LINE SOURCE TEXT
  VALUE

0084   0086               M     MOVWF PORTB
Warning[207]: Found label after column 1. (CORNIO_INPUT_LOOP_INI)
0085                      M  CORNIO_INPUT_LOOP_INI:
0085   301F               M     MOVLW KEY_NONE
0086   00??               M     MOVWF ENTRADA
                          M     
0087   1006               M     BCF PORTB, RB0
Message[302]: Register in operand not in bank 0.  Ensure that bank bits are correct.
0088   1C08               M     BTFSS TRISD, RD0
0089   2???               M     GOTO CORNIO_MOV_ASTER       ; *
008A   2???               M     CALL CORNIO_INPUT_DELAY
                          M     
Message[302]: Register in operand not in bank 0.  Ensure that bank bits are correct.
008B   1C88               M     BTFSS TRISD, RD1
008C   2???               M     GOTO CORNIO_MOV7            ; 7
008D   2???               M     CALL CORNIO_INPUT_DELAY
                          M 
Message[302]: Register in operand not in bank 0.  Ensure that bank bits are correct.
008E   1D08               M     BTFSS TRISD, RD2
008F   2???               M     GOTO CORNIO_MOV4            ; 4
0090   2???               M     CALL CORNIO_INPUT_DELAY
                          M 
Message[302]: Register in operand not in bank 0.  Ensure that bank bits are correct.
0091   1D88               M     BTFSS TRISD, RD3
0092   2???               M     GOTO CORNIO_MOV1            ;1
0093   2???               M     CALL CORNIO_INPUT_DELAY
0094   1406               M     BSF PORTB, RB0
                          M     
                          M     ;;
0095   1086               M     BCF PORTB, RB1
Message[302]: Register in operand not in bank 0.  Ensure that bank bits are correct.
0096   1C08               M     BTFSS TRISD, RD0
0097   2???               M     GOTO CORNIO_MOV0            ;0
0098   2???               M     CALL CORNIO_INPUT_DELAY
                          M         
Message[302]: Register in operand not in bank 0.  Ensure that bank bits are correct.
0099   1C88               M     BTFSS TRISD, RD1
009A   2???               M     GOTO CORNIO_MOV8            ;8
009B   2???               M     CALL CORNIO_INPUT_DELAY
                          M         
Message[302]: Register in operand not in bank 0.  Ensure that bank bits are correct.
009C   1D08               M     BTFSS TRISD, RD2
009D   2???               M     GOTO CORNIO_MOV5            ;5
009E   2???               M     CALL CORNIO_INPUT_DELAY
                          M         
Message[302]: Register in operand not in bank 0.  Ensure that bank bits are correct.
009F   1D88               M     BTFSS TRISD, RD3
00A0   2???               M     GOTO CORNIO_MOV2            ;2
00A1   2???               M     CALL CORNIO_INPUT_DELAY
00A2   1486               M     BSF PORTB, RB1
                          M     
                          M     ;;
00A3   1106               M     BCF PORTB, RB2
MPASM 5.87                          MAIN.ASM   6-6-2020  3:57:00         PAGE 36


LOC  OBJECT CODE     LINE SOURCE TEXT
  VALUE

Message[302]: Register in operand not in bank 0.  Ensure that bank bits are correct.
00A4   1C08               M     BTFSS TRISD, RD0
00A5   2???               M     GOTO CORNIO_MOV_HASH        ;#
00A6   2???               M     CALL CORNIO_INPUT_DELAY
                          M         
Message[302]: Register in operand not in bank 0.  Ensure that bank bits are correct.
00A7   1D88               M     BTFSS TRISD, RD3
00A8   2???               M     GOTO CORNIO_MOV3            ;3
00A9   2???               M     CALL CORNIO_INPUT_DELAY
                          M         
Message[302]: Register in operand not in bank 0.  Ensure that bank bits are correct.
00AA   1D08               M     BTFSS TRISD, RD2
00AB   2???               M     GOTO CORNIO_MOV6            ;6
00AC   2???               M     CALL CORNIO_INPUT_DELAY
                          M         
Message[302]: Register in operand not in bank 0.  Ensure that bank bits are correct.
00AD   1C88               M     BTFSS TRISD, RD1
00AE   2???               M     GOTO CORNIO_MOV9            ;9
00AF   2???               M     CALL CORNIO_INPUT_DELAY
00B0   1506               M     BSF PORTB, RB2
                          M     ;;
                          M     
00B1   2???               M     GOTO CORNIO_INPUT_LOOP_INI
                          M   
                          M     
00B2                      M CORNIO_INPUT:
                          M     BANK1
00B2   1303               M  BCF STATUS, RP1
00B3   1683               M  BSF STATUS, RP0
00B4   300F               M     MOVLW B'00001111'
Message[302]: Register in operand not in bank 0.  Ensure that bank bits are correct.
00B5   0085               M     MOVWF TRISA
Message[302]: Register in operand not in bank 0.  Ensure that bank bits are correct.
00B6   0186               M     CLRF TRISB
00B7   300F               M     MOVLW B'00001111'
Message[302]: Register in operand not in bank 0.  Ensure that bank bits are correct.
00B8   0088               M     MOVWF TRISD
                          M     BANK0
00B9   1303               M  BCF STATUS, RP1
00BA   1283               M  BCF STATUS, RP0
00BB   3000               M     MOVLW B'00000000'
00BC   0086               M     MOVWF PORTB
                          M     
00BD   301F               M     MOVLW KEY_NONE
00BE   00??               M     MOVWF ENTRADA
                          M     
00BF   1006               M     BCF PORTB, RB0
Message[302]: Register in operand not in bank 0.  Ensure that bank bits are correct.
00C0   1C08               M     BTFSS TRISD, RD0
00C1   2???               M     GOTO CORNIO_MOV_ASTER       ; *
00C2   2???               M     CALL CORNIO_INPUT_DELAY
                          M     
Message[302]: Register in operand not in bank 0.  Ensure that bank bits are correct.
MPASM 5.87                          MAIN.ASM   6-6-2020  3:57:00         PAGE 37


LOC  OBJECT CODE     LINE SOURCE TEXT
  VALUE

00C3   1C88               M     BTFSS TRISD, RD1
00C4   2???               M     GOTO CORNIO_MOV7            ; 7
00C5   2???               M     CALL CORNIO_INPUT_DELAY
                          M 
Message[302]: Register in operand not in bank 0.  Ensure that bank bits are correct.
00C6   1D08               M     BTFSS TRISD, RD2
00C7   2???               M     GOTO CORNIO_MOV4            ; 4
00C8   2???               M     CALL CORNIO_INPUT_DELAY
                          M 
Message[302]: Register in operand not in bank 0.  Ensure that bank bits are correct.
00C9   1D88               M     BTFSS TRISD, RD3
00CA   2???               M     GOTO CORNIO_MOV1            ;1
00CB   2???               M     CALL CORNIO_INPUT_DELAY
                          M     
00CC   1406               M     BSF PORTB, RB0
                          M     
00CD   1086               M     BCF PORTB, RB1
Message[302]: Register in operand not in bank 0.  Ensure that bank bits are correct.
00CE   1C08               M     BTFSS TRISD, RD0
00CF   2???               M     GOTO CORNIO_MOV0            ;0
00D0   2???               M     CALL CORNIO_INPUT_DELAY
                          M         
Message[302]: Register in operand not in bank 0.  Ensure that bank bits are correct.
00D1   1C88               M     BTFSS TRISD, RD1
00D2   2???               M     GOTO CORNIO_MOV8            ;8
00D3   2???               M     CALL CORNIO_INPUT_DELAY
                          M         
Message[302]: Register in operand not in bank 0.  Ensure that bank bits are correct.
00D4   1D08               M     BTFSS TRISD, RD2
00D5   2???               M     GOTO CORNIO_MOV5            ;5
00D6   2???               M     CALL CORNIO_INPUT_DELAY
                          M         
Message[302]: Register in operand not in bank 0.  Ensure that bank bits are correct.
00D7   1D88               M     BTFSS TRISD, RD3
00D8   2???               M     GOTO CORNIO_MOV2            ;2
00D9   2???               M     CALL CORNIO_INPUT_DELAY
                          M     
00DA   1486               M     BSF PORTB, RB1
                          M     
00DB   1106               M     BCF PORTB, RB2
Message[302]: Register in operand not in bank 0.  Ensure that bank bits are correct.
00DC   1C08               M     BTFSS TRISD, RD0
00DD   2???               M     GOTO CORNIO_MOV_HASH        ;#
00DE   2???               M     CALL CORNIO_INPUT_DELAY
                          M         
Message[302]: Register in operand not in bank 0.  Ensure that bank bits are correct.
00DF   1D88               M     BTFSS TRISD, RD3
00E0   2???               M     GOTO CORNIO_MOV3            ;3
00E1   2???               M     CALL CORNIO_INPUT_DELAY
                          M         
Message[302]: Register in operand not in bank 0.  Ensure that bank bits are correct.
00E2   1D08               M     BTFSS TRISD, RD2
00E3   2???               M     GOTO CORNIO_MOV6            ;6
MPASM 5.87                          MAIN.ASM   6-6-2020  3:57:00         PAGE 38


LOC  OBJECT CODE     LINE SOURCE TEXT
  VALUE

00E4   2???               M     CALL CORNIO_INPUT_DELAY
                          M         
Message[302]: Register in operand not in bank 0.  Ensure that bank bits are correct.
00E5   1C88               M     BTFSS TRISD, RD1
00E6   2???               M     GOTO CORNIO_MOV9            ;9
00E7   2???               M     CALL CORNIO_INPUT_DELAY
                          M     
00E8   1506               M     BSF PORTB, RB2
00E9   2???               M     GOTO CORNIO_EXIT
                          M     
00EA                      M CORNIO_INPUT_DELAY:
                          M     DELAY_MS D'2'
00EA   30A5               M     MOVLW D'165' 
00EB   00??               M     MOVWF CORNIO_DELAY_FT1 
                          M     
00EC   3002               M     MOVLW D'2' 
00ED   00??               M     MOVWF CORNIO_DELAY_FT2
                          M     
00EE   0B??               M     DECFSZ CORNIO_DELAY_FT1,1 
00EF   2???               M     GOTO $-1 
00F0   0B??               M     DECFSZ CORNIO_DELAY_FT2,1
00F1   2???               M     GOTO $-3
00F2   0008               M     RETURN
                          M     
00F3                      M CORNIO_MOV_ASTER:
00F3   303F               M     MOVLW KEY_ASTER
00F4   00??               M     MOVWF ENTRADA
00F5   2???               M     GOTO CORNIO_EXIT
00F6                      M CORNIO_MOV_HASH:
00F6   307F               M     MOVLW KEY_HASH
00F7   00??               M     MOVWF ENTRADA
00F8   2???               M     GOTO CORNIO_EXIT
00F9                      M CORNIO_MOV0:
00F9   3000               M     MOVLW KEY_0
00FA   00??               M     MOVWF ENTRADA
00FB   2???               M     GOTO CORNIO_EXIT
00FC                      M CORNIO_MOV1:
00FC   3001               M     MOVLW KEY_1
00FD   00??               M     MOVWF ENTRADA
00FE   2???               M     GOTO CORNIO_EXIT    
00FF                      M CORNIO_MOV2:
00FF   3002               M     MOVLW KEY_2
0100   00??               M     MOVWF ENTRADA
0101   2???               M     GOTO CORNIO_EXIT
0102                      M CORNIO_MOV3:
0102   3003               M     MOVLW KEY_3
0103   00??               M     MOVWF ENTRADA
0104   2???               M     GOTO CORNIO_EXIT
0105                      M CORNIO_MOV4:
0105   3004               M     MOVLW KEY_4
0106   00??               M     MOVWF ENTRADA
0107   2???               M     GOTO CORNIO_EXIT    
0108                      M CORNIO_MOV5:
MPASM 5.87                          MAIN.ASM   6-6-2020  3:57:00         PAGE 39


LOC  OBJECT CODE     LINE SOURCE TEXT
  VALUE

0108   3005               M     MOVLW KEY_5
0109   00??               M     MOVWF ENTRADA
010A   2???               M     GOTO CORNIO_EXIT
010B                      M CORNIO_MOV6:
010B   3006               M     MOVLW KEY_6
010C   00??               M     MOVWF ENTRADA
010D   2???               M     GOTO CORNIO_EXIT
010E                      M CORNIO_MOV7:
010E   3007               M     MOVLW KEY_7
010F   00??               M     MOVWF ENTRADA
0110   2???               M     GOTO CORNIO_EXIT
0111                      M CORNIO_MOV8:
0111   3008               M     MOVLW KEY_8
0112   00??               M     MOVWF ENTRADA
0113   2???               M     GOTO CORNIO_EXIT
0114                      M CORNIO_MOV9:
0114   3009               M     MOVLW KEY_9
0115   00??               M     MOVWF ENTRADA
0116   2???               M     GOTO CORNIO_EXIT
                          M 
0117                      M CORNIO_EXIT:
                          M     DELAY_MS D'100'
0117   30A5               M     MOVLW D'165' 
0118   00??               M     MOVWF CORNIO_DELAY_FT1 
                          M     
0119   3064               M     MOVLW D'100' 
011A   00??               M     MOVWF CORNIO_DELAY_FT2
                          M     
011B   0B??               M     DECFSZ CORNIO_DELAY_FT1,1 
011C   2???               M     GOTO $-1 
011D   0B??               M     DECFSZ CORNIO_DELAY_FT2,1
011E   2???               M     GOTO $-3
011F   0008               M     RETURN  
                          M     
                          M     #ENDIF
                      00100  TELAS_DEF
Warning[207]: Found label after column 1. (TELA_AP)
0120                      M      TELA_AP:                                                                   ;Exibe uma tela com os n
                            omes dos desenvolvedores no inicio do jogo
0120   2???               M         CALL LCD_ENABLE
                          M         LCD_CMD L_CLR
0121   3001               M  MOVLW L_CLR
0122   00??               M  MOVWF LCD_CMD_INPUT
0123   2???               M  CALL DEF_LCD_CMD
                          M         LCD_CMD L_L1    ;LINHA 1
0124   3080               M  MOVLW L_L1
0125   00??               M  MOVWF LCD_CMD_INPUT
0126   2???               M  CALL DEF_LCD_CMD
                          M         LCD_DAT D'42'
0127   302A               M  MOVLW D'42'
0128   00??               M  MOVWF LCD_DAT_INPUT
0129   2???               M  CALL DEF_LCD_DAT
                          M         LCD_DAT D'42'
MPASM 5.87                          MAIN.ASM   6-6-2020  3:57:00         PAGE 40


LOC  OBJECT CODE     LINE SOURCE TEXT
  VALUE

012A   302A               M  MOVLW D'42'
012B   00??               M  MOVWF LCD_DAT_INPUT
012C   2???               M  CALL DEF_LCD_DAT
                          M         LCD_DAT D'42'
012D   302A               M  MOVLW D'42'
012E   00??               M  MOVWF LCD_DAT_INPUT
012F   2???               M  CALL DEF_LCD_DAT
                          M         LCD_DAT D'42'
0130   302A               M  MOVLW D'42'
0131   00??               M  MOVWF LCD_DAT_INPUT
0132   2???               M  CALL DEF_LCD_DAT
                          M         LCD_DAT D'42'
0133   302A               M  MOVLW D'42'
0134   00??               M  MOVWF LCD_DAT_INPUT
0135   2???               M  CALL DEF_LCD_DAT
                          M         LCD_DAT D'42'
0136   302A               M  MOVLW D'42'
0137   00??               M  MOVWF LCD_DAT_INPUT
0138   2???               M  CALL DEF_LCD_DAT
                          M         LCD_DAT D'42'
0139   302A               M  MOVLW D'42'
013A   00??               M  MOVWF LCD_DAT_INPUT
013B   2???               M  CALL DEF_LCD_DAT
                          M         LCD_DAT D'42'
013C   302A               M  MOVLW D'42'
013D   00??               M  MOVWF LCD_DAT_INPUT
013E   2???               M  CALL DEF_LCD_DAT
                          M         LCD_DAT D'42'
013F   302A               M  MOVLW D'42'
0140   00??               M  MOVWF LCD_DAT_INPUT
0141   2???               M  CALL DEF_LCD_DAT
                          M         LCD_DAT D'42'
0142   302A               M  MOVLW D'42'
0143   00??               M  MOVWF LCD_DAT_INPUT
0144   2???               M  CALL DEF_LCD_DAT
                          M         LCD_DAT D'42'
0145   302A               M  MOVLW D'42'
0146   00??               M  MOVWF LCD_DAT_INPUT
0147   2???               M  CALL DEF_LCD_DAT
                          M         LCD_DAT D'42'
0148   302A               M  MOVLW D'42'
0149   00??               M  MOVWF LCD_DAT_INPUT
014A   2???               M  CALL DEF_LCD_DAT
                          M         LCD_DAT D'42'
014B   302A               M  MOVLW D'42'
014C   00??               M  MOVWF LCD_DAT_INPUT
014D   2???               M  CALL DEF_LCD_DAT
                          M         LCD_DAT D'42'
014E   302A               M  MOVLW D'42'
014F   00??               M  MOVWF LCD_DAT_INPUT
0150   2???               M  CALL DEF_LCD_DAT
                          M         LCD_DAT D'42'
0151   302A               M  MOVLW D'42'
MPASM 5.87                          MAIN.ASM   6-6-2020  3:57:00         PAGE 41


LOC  OBJECT CODE     LINE SOURCE TEXT
  VALUE

0152   00??               M  MOVWF LCD_DAT_INPUT
0153   2???               M  CALL DEF_LCD_DAT
                          M         LCD_DAT D'42'
0154   302A               M  MOVLW D'42'
0155   00??               M  MOVWF LCD_DAT_INPUT
0156   2???               M  CALL DEF_LCD_DAT
                          M         
                          M         LCD_CMD L_L3    ;LINHA 4
0157   3090               M  MOVLW L_L3
0158   00??               M  MOVWF LCD_CMD_INPUT
0159   2???               M  CALL DEF_LCD_CMD
                          M         LCD_DAT '*'     ;DESENHA *
015A   302A               M  MOVLW '*'
015B   00??               M  MOVWF LCD_DAT_INPUT
015C   2???               M  CALL DEF_LCD_DAT
                          M         LCD_DAT ' '     ;DESENHA ' '
015D   3020               M  MOVLW ' '
015E   00??               M  MOVWF LCD_DAT_INPUT
015F   2???               M  CALL DEF_LCD_DAT
                          M         LCD_DAT 'R'     ;DESENHA R
0160   3052               M  MOVLW 'R'
0161   00??               M  MOVWF LCD_DAT_INPUT
0162   2???               M  CALL DEF_LCD_DAT
                          M         LCD_DAT 'U'     ;DESENHA U
0163   3055               M  MOVLW 'U'
0164   00??               M  MOVWF LCD_DAT_INPUT
0165   2???               M  CALL DEF_LCD_DAT
                          M         LCD_DAT 'A'     ;DESENHA A
0166   3041               M  MOVLW 'A'
0167   00??               M  MOVWF LCD_DAT_INPUT
0168   2???               M  CALL DEF_LCD_DAT
                          M         LCD_DAT 'N'     ;DESENHA N
0169   304E               M  MOVLW 'N'
016A   00??               M  MOVWF LCD_DAT_INPUT
016B   2???               M  CALL DEF_LCD_DAT
                          M         LCD_DAT ' '     ;DESENHA ' '
016C   3020               M  MOVLW ' '
016D   00??               M  MOVWF LCD_DAT_INPUT
016E   2???               M  CALL DEF_LCD_DAT
                          M         LCD_DAT 'A'     ;DESENHA A
016F   3041               M  MOVLW 'A'
0170   00??               M  MOVWF LCD_DAT_INPUT
0171   2???               M  CALL DEF_LCD_DAT
                          M         LCD_DAT 'Z'     ;DESENHA Z
0172   305A               M  MOVLW 'Z'
0173   00??               M  MOVWF LCD_DAT_INPUT
0174   2???               M  CALL DEF_LCD_DAT
                          M         LCD_DAT 'E'     ;DESENHA E
0175   3045               M  MOVLW 'E'
0176   00??               M  MOVWF LCD_DAT_INPUT
0177   2???               M  CALL DEF_LCD_DAT
                          M         LCD_DAT 'V'     ;DESENHA V
0178   3056               M  MOVLW 'V'
MPASM 5.87                          MAIN.ASM   6-6-2020  3:57:00         PAGE 42


LOC  OBJECT CODE     LINE SOURCE TEXT
  VALUE

0179   00??               M  MOVWF LCD_DAT_INPUT
017A   2???               M  CALL DEF_LCD_DAT
                          M         LCD_DAT 'E'     ;DESENHA E
017B   3045               M  MOVLW 'E'
017C   00??               M  MOVWF LCD_DAT_INPUT
017D   2???               M  CALL DEF_LCD_DAT
                          M         LCD_DAT 'D'     ;DESENHA D
017E   3044               M  MOVLW 'D'
017F   00??               M  MOVWF LCD_DAT_INPUT
0180   2???               M  CALL DEF_LCD_DAT
                          M         LCD_DAT 'O'     ;DESENHA O
0181   304F               M  MOVLW 'O'
0182   00??               M  MOVWF LCD_DAT_INPUT
0183   2???               M  CALL DEF_LCD_DAT
                          M         LCD_DAT ' '     ;DESENHA ' '
0184   3020               M  MOVLW ' '
0185   00??               M  MOVWF LCD_DAT_INPUT
0186   2???               M  CALL DEF_LCD_DAT
                          M         LCD_DAT '*'     ;DESENHA *
0187   302A               M  MOVLW '*'
0188   00??               M  MOVWF LCD_DAT_INPUT
0189   2???               M  CALL DEF_LCD_DAT
                          M         
                          M         LCD_CMD L_L2    ;LINHA 4
018A   30C0               M  MOVLW L_L2
018B   00??               M  MOVWF LCD_CMD_INPUT
018C   2???               M  CALL DEF_LCD_CMD
                          M         LCD_DAT '*'     ;DESENHA *
018D   302A               M  MOVLW '*'
018E   00??               M  MOVWF LCD_DAT_INPUT
018F   2???               M  CALL DEF_LCD_DAT
                          M         LCD_DAT ' '     ;DESENHA ' '
0190   3020               M  MOVLW ' '
0191   00??               M  MOVWF LCD_DAT_INPUT
0192   2???               M  CALL DEF_LCD_DAT
                          M         LCD_DAT 'J'     ;DESENHA J
0193   304A               M  MOVLW 'J'
0194   00??               M  MOVWF LCD_DAT_INPUT
0195   2???               M  CALL DEF_LCD_DAT
                          M         LCD_DAT 'A'     ;DESENHA A
0196   3041               M  MOVLW 'A'
0197   00??               M  MOVWF LCD_DAT_INPUT
0198   2???               M  CALL DEF_LCD_DAT
                          M         LCD_DAT 'N'     ;DESENHA N
0199   304E               M  MOVLW 'N'
019A   00??               M  MOVWF LCD_DAT_INPUT
019B   2???               M  CALL DEF_LCD_DAT
                          M         LCD_DAT 'D'     ;DESENHA D
019C   3044               M  MOVLW 'D'
019D   00??               M  MOVWF LCD_DAT_INPUT
019E   2???               M  CALL DEF_LCD_DAT
                          M         LCD_DAT 'E'     ;DESENHA E
019F   3045               M  MOVLW 'E'
MPASM 5.87                          MAIN.ASM   6-6-2020  3:57:00         PAGE 43


LOC  OBJECT CODE     LINE SOURCE TEXT
  VALUE

01A0   00??               M  MOVWF LCD_DAT_INPUT
01A1   2???               M  CALL DEF_LCD_DAT
                          M         LCD_DAT 'R'     ;DESENHA R
01A2   3052               M  MOVLW 'R'
01A3   00??               M  MOVWF LCD_DAT_INPUT
01A4   2???               M  CALL DEF_LCD_DAT
                          M         LCD_DAT ' '     ;DESENHA ' '
01A5   3020               M  MOVLW ' '
01A6   00??               M  MOVWF LCD_DAT_INPUT
01A7   2???               M  CALL DEF_LCD_DAT
                          M         LCD_DAT 'S'     ;DESENHA S
01A8   3053               M  MOVLW 'S'
01A9   00??               M  MOVWF LCD_DAT_INPUT
01AA   2???               M  CALL DEF_LCD_DAT
                          M         LCD_DAT 'I'     ;DESENHA I
01AB   3049               M  MOVLW 'I'
01AC   00??               M  MOVWF LCD_DAT_INPUT
01AD   2???               M  CALL DEF_LCD_DAT
                          M         LCD_DAT 'L'     ;DESENHA L
01AE   304C               M  MOVLW 'L'
01AF   00??               M  MOVWF LCD_DAT_INPUT
01B0   2???               M  CALL DEF_LCD_DAT
                          M         LCD_DAT 'V'     ;DESENHA V
01B1   3056               M  MOVLW 'V'
01B2   00??               M  MOVWF LCD_DAT_INPUT
01B3   2???               M  CALL DEF_LCD_DAT
                          M         LCD_DAT 'A'     ;DESENHA A
01B4   3041               M  MOVLW 'A'
01B5   00??               M  MOVWF LCD_DAT_INPUT
01B6   2???               M  CALL DEF_LCD_DAT
                          M         LCD_DAT ' '     ;DESENHA ' '
01B7   3020               M  MOVLW ' '
01B8   00??               M  MOVWF LCD_DAT_INPUT
01B9   2???               M  CALL DEF_LCD_DAT
                          M         LCD_DAT '*'     ;DESENHA *
01BA   302A               M  MOVLW '*'
01BB   00??               M  MOVWF LCD_DAT_INPUT
01BC   2???               M  CALL DEF_LCD_DAT
                          M         
                          M         LCD_CMD L_L4    ;LINHA 4
01BD   30D0               M  MOVLW L_L4
01BE   00??               M  MOVWF LCD_CMD_INPUT
01BF   2???               M  CALL DEF_LCD_CMD
                          M         LCD_DAT D'42'
01C0   302A               M  MOVLW D'42'
01C1   00??               M  MOVWF LCD_DAT_INPUT
01C2   2???               M  CALL DEF_LCD_DAT
                          M         LCD_DAT D'42'
01C3   302A               M  MOVLW D'42'
01C4   00??               M  MOVWF LCD_DAT_INPUT
01C5   2???               M  CALL DEF_LCD_DAT
                          M         LCD_DAT D'42'
01C6   302A               M  MOVLW D'42'
MPASM 5.87                          MAIN.ASM   6-6-2020  3:57:00         PAGE 44


LOC  OBJECT CODE     LINE SOURCE TEXT
  VALUE

01C7   00??               M  MOVWF LCD_DAT_INPUT
01C8   2???               M  CALL DEF_LCD_DAT
                          M         LCD_DAT D'42'
01C9   302A               M  MOVLW D'42'
01CA   00??               M  MOVWF LCD_DAT_INPUT
01CB   2???               M  CALL DEF_LCD_DAT
                          M         LCD_DAT D'42'
01CC   302A               M  MOVLW D'42'
01CD   00??               M  MOVWF LCD_DAT_INPUT
01CE   2???               M  CALL DEF_LCD_DAT
                          M         LCD_DAT D'42'
01CF   302A               M  MOVLW D'42'
01D0   00??               M  MOVWF LCD_DAT_INPUT
01D1   2???               M  CALL DEF_LCD_DAT
                          M         LCD_DAT D'42'
01D2   302A               M  MOVLW D'42'
01D3   00??               M  MOVWF LCD_DAT_INPUT
01D4   2???               M  CALL DEF_LCD_DAT
                          M         LCD_DAT D'42'
01D5   302A               M  MOVLW D'42'
01D6   00??               M  MOVWF LCD_DAT_INPUT
01D7   2???               M  CALL DEF_LCD_DAT
                          M         LCD_DAT D'42'
01D8   302A               M  MOVLW D'42'
01D9   00??               M  MOVWF LCD_DAT_INPUT
01DA   2???               M  CALL DEF_LCD_DAT
                          M         LCD_DAT D'42'
01DB   302A               M  MOVLW D'42'
01DC   00??               M  MOVWF LCD_DAT_INPUT
01DD   2???               M  CALL DEF_LCD_DAT
                          M         LCD_DAT D'42'
01DE   302A               M  MOVLW D'42'
01DF   00??               M  MOVWF LCD_DAT_INPUT
01E0   2???               M  CALL DEF_LCD_DAT
                          M         LCD_DAT D'42'
01E1   302A               M  MOVLW D'42'
01E2   00??               M  MOVWF LCD_DAT_INPUT
01E3   2???               M  CALL DEF_LCD_DAT
                          M         LCD_DAT D'42'
01E4   302A               M  MOVLW D'42'
01E5   00??               M  MOVWF LCD_DAT_INPUT
01E6   2???               M  CALL DEF_LCD_DAT
                          M         LCD_DAT D'42'
01E7   302A               M  MOVLW D'42'
01E8   00??               M  MOVWF LCD_DAT_INPUT
01E9   2???               M  CALL DEF_LCD_DAT
                          M         LCD_DAT D'42'
01EA   302A               M  MOVLW D'42'
01EB   00??               M  MOVWF LCD_DAT_INPUT
01EC   2???               M  CALL DEF_LCD_DAT
                          M         LCD_DAT D'42'
01ED   302A               M  MOVLW D'42'
01EE   00??               M  MOVWF LCD_DAT_INPUT
MPASM 5.87                          MAIN.ASM   6-6-2020  3:57:00         PAGE 45


LOC  OBJECT CODE     LINE SOURCE TEXT
  VALUE

01EF   2???               M  CALL DEF_LCD_DAT
                          M         
01F0   0008               M         RETURN
                          M         
Warning[207]: Found label after column 1. (TELA_INSTRUCOES)
01F1                      M     TELA_INSTRUCOES:                                                            ; EXIBE INSTRUES DO JO
                            GO
01F1   2???               M         CALL LCD_ENABLE
                          M         LCD_CMD L_CLR
01F2   3001               M  MOVLW L_CLR
01F3   00??               M  MOVWF LCD_CMD_INPUT
01F4   2???               M  CALL DEF_LCD_CMD
                          M         LCD_CMD L_L1    ;LINHA 1
01F5   3080               M  MOVLW L_L1
01F6   00??               M  MOVWF LCD_CMD_INPUT
01F7   2???               M  CALL DEF_LCD_CMD
                          M         LCD_DAT D'42'
01F8   302A               M  MOVLW D'42'
01F9   00??               M  MOVWF LCD_DAT_INPUT
01FA   2???               M  CALL DEF_LCD_DAT
                          M         LCD_DAT D'42'
01FB   302A               M  MOVLW D'42'
01FC   00??               M  MOVWF LCD_DAT_INPUT
01FD   2???               M  CALL DEF_LCD_DAT
                          M         LCD_DAT D'42'
01FE   302A               M  MOVLW D'42'
01FF   00??               M  MOVWF LCD_DAT_INPUT
0200   2???               M  CALL DEF_LCD_DAT
                          M         LCD_DAT D'42'
0201   302A               M  MOVLW D'42'
0202   00??               M  MOVWF LCD_DAT_INPUT
0203   2???               M  CALL DEF_LCD_DAT
                          M         LCD_DAT D'42'
0204   302A               M  MOVLW D'42'
0205   00??               M  MOVWF LCD_DAT_INPUT
0206   2???               M  CALL DEF_LCD_DAT
                          M         LCD_DAT D'42'
0207   302A               M  MOVLW D'42'
0208   00??               M  MOVWF LCD_DAT_INPUT
0209   2???               M  CALL DEF_LCD_DAT
                          M         LCD_DAT D'42'
020A   302A               M  MOVLW D'42'
020B   00??               M  MOVWF LCD_DAT_INPUT
020C   2???               M  CALL DEF_LCD_DAT
                          M         LCD_DAT D'42'
020D   302A               M  MOVLW D'42'
020E   00??               M  MOVWF LCD_DAT_INPUT
020F   2???               M  CALL DEF_LCD_DAT
                          M         LCD_DAT D'42'
0210   302A               M  MOVLW D'42'
0211   00??               M  MOVWF LCD_DAT_INPUT
0212   2???               M  CALL DEF_LCD_DAT
                          M         LCD_DAT D'42'
MPASM 5.87                          MAIN.ASM   6-6-2020  3:57:00         PAGE 46


LOC  OBJECT CODE     LINE SOURCE TEXT
  VALUE

0213   302A               M  MOVLW D'42'
0214   00??               M  MOVWF LCD_DAT_INPUT
0215   2???               M  CALL DEF_LCD_DAT
                          M         LCD_DAT D'42'
0216   302A               M  MOVLW D'42'
0217   00??               M  MOVWF LCD_DAT_INPUT
0218   2???               M  CALL DEF_LCD_DAT
                          M         LCD_DAT D'42'
0219   302A               M  MOVLW D'42'
021A   00??               M  MOVWF LCD_DAT_INPUT
021B   2???               M  CALL DEF_LCD_DAT
                          M         LCD_DAT D'42'
021C   302A               M  MOVLW D'42'
021D   00??               M  MOVWF LCD_DAT_INPUT
021E   2???               M  CALL DEF_LCD_DAT
                          M         LCD_DAT D'42'
021F   302A               M  MOVLW D'42'
0220   00??               M  MOVWF LCD_DAT_INPUT
0221   2???               M  CALL DEF_LCD_DAT
                          M         LCD_DAT D'42'
0222   302A               M  MOVLW D'42'
0223   00??               M  MOVWF LCD_DAT_INPUT
0224   2???               M  CALL DEF_LCD_DAT
                          M         LCD_DAT D'42'
0225   302A               M  MOVLW D'42'
0226   00??               M  MOVWF LCD_DAT_INPUT
0227   2???               M  CALL DEF_LCD_DAT
                          M         
                          M         LCD_CMD L_L2    ;LINHA 4
0228   30C0               M  MOVLW L_L2
0229   00??               M  MOVWF LCD_CMD_INPUT
022A   2???               M  CALL DEF_LCD_CMD
                          M         LCD_DAT '*'     ;DESENHA *
022B   302A               M  MOVLW '*'
022C   00??               M  MOVWF LCD_DAT_INPUT
022D   2???               M  CALL DEF_LCD_DAT
                          M         LCD_DAT ' '     ;DESENHA ' '
022E   3020               M  MOVLW ' '
022F   00??               M  MOVWF LCD_DAT_INPUT
0230   2???               M  CALL DEF_LCD_DAT
                          M         LCD_DAT ' '     ;DESENHA D
0231   3020               M  MOVLW ' '
0232   00??               M  MOVWF LCD_DAT_INPUT
0233   2???               M  CALL DEF_LCD_DAT
                          M         LCD_DAT ' '     ;DESENHA O
0234   3020               M  MOVLW ' '
0235   00??               M  MOVWF LCD_DAT_INPUT
0236   2???               M  CALL DEF_LCD_DAT
                          M         LCD_DAT 'A'     ;DESENHA R
0237   3041               M  MOVLW 'A'
0238   00??               M  MOVWF LCD_DAT_INPUT
0239   2???               M  CALL DEF_LCD_DAT
                          M         LCD_DAT 'P'     ;DESENHA U
MPASM 5.87                          MAIN.ASM   6-6-2020  3:57:00         PAGE 47


LOC  OBJECT CODE     LINE SOURCE TEXT
  VALUE

023A   3050               M  MOVLW 'P'
023B   00??               M  MOVWF LCD_DAT_INPUT
023C   2???               M  CALL DEF_LCD_DAT
                          M         LCD_DAT 'E'     ;DESENHA A
023D   3045               M  MOVLW 'E'
023E   00??               M  MOVWF LCD_DAT_INPUT
023F   2???               M  CALL DEF_LCD_DAT
                          M         LCD_DAT 'R'     ;DESENHA N
0240   3052               M  MOVLW 'R'
0241   00??               M  MOVWF LCD_DAT_INPUT
0242   2???               M  CALL DEF_LCD_DAT
                          M         LCD_DAT 'T'     ;DESENHA ' '
0243   3054               M  MOVLW 'T'
0244   00??               M  MOVWF LCD_DAT_INPUT
0245   2???               M  CALL DEF_LCD_DAT
                          M         LCD_DAT 'E'     ;DESENHA A
0246   3045               M  MOVLW 'E'
0247   00??               M  MOVWF LCD_DAT_INPUT
0248   2???               M  CALL DEF_LCD_DAT
                          M         LCD_DAT ' '     ;DESENHA Z
0249   3020               M  MOVLW ' '
024A   00??               M  MOVWF LCD_DAT_INPUT
024B   2???               M  CALL DEF_LCD_DAT
                          M         LCD_DAT '5'     ;DESENHA E
024C   3035               M  MOVLW '5'
024D   00??               M  MOVWF LCD_DAT_INPUT
024E   2???               M  CALL DEF_LCD_DAT
                          M         LCD_DAT ' '     ;DESENHA V
024F   3020               M  MOVLW ' '
0250   00??               M  MOVWF LCD_DAT_INPUT
0251   2???               M  CALL DEF_LCD_DAT
                          M         LCD_DAT ' '     ;DESENHA E
0252   3020               M  MOVLW ' '
0253   00??               M  MOVWF LCD_DAT_INPUT
0254   2???               M  CALL DEF_LCD_DAT
                          M         LCD_DAT ' '     ;DESENHA ' '
0255   3020               M  MOVLW ' '
0256   00??               M  MOVWF LCD_DAT_INPUT
0257   2???               M  CALL DEF_LCD_DAT
                          M         LCD_DAT '*'     ;DESENHA *
0258   302A               M  MOVLW '*'
0259   00??               M  MOVWF LCD_DAT_INPUT
025A   2???               M  CALL DEF_LCD_DAT
                          M         
                          M         LCD_CMD L_L3    ;LINHA 4
025B   3090               M  MOVLW L_L3
025C   00??               M  MOVWF LCD_CMD_INPUT
025D   2???               M  CALL DEF_LCD_CMD
                          M         LCD_DAT '*'     ;DESENHA *
025E   302A               M  MOVLW '*'
025F   00??               M  MOVWF LCD_DAT_INPUT
0260   2???               M  CALL DEF_LCD_DAT
                          M         LCD_DAT ' '     ;DESENHA D
MPASM 5.87                          MAIN.ASM   6-6-2020  3:57:00         PAGE 48


LOC  OBJECT CODE     LINE SOURCE TEXT
  VALUE

0261   3020               M  MOVLW ' '
0262   00??               M  MOVWF LCD_DAT_INPUT
0263   2???               M  CALL DEF_LCD_DAT
                          M         LCD_DAT ' '     ;DESENHA ' '
0264   3020               M  MOVLW ' '
0265   00??               M  MOVWF LCD_DAT_INPUT
0266   2???               M  CALL DEF_LCD_DAT
                          M         LCD_DAT 'P'     ;DESENHA R
0267   3050               M  MOVLW 'P'
0268   00??               M  MOVWF LCD_DAT_INPUT
0269   2???               M  CALL DEF_LCD_DAT
                          M         LCD_DAT 'A'     ;DESENHA U
026A   3041               M  MOVLW 'A'
026B   00??               M  MOVWF LCD_DAT_INPUT
026C   2???               M  CALL DEF_LCD_DAT
                          M         LCD_DAT 'R'     ;DESENHA A
026D   3052               M  MOVLW 'R'
026E   00??               M  MOVWF LCD_DAT_INPUT
026F   2???               M  CALL DEF_LCD_DAT
                          M         LCD_DAT 'A'     ;DESENHA N
0270   3041               M  MOVLW 'A'
0271   00??               M  MOVWF LCD_DAT_INPUT
0272   2???               M  CALL DEF_LCD_DAT
                          M         LCD_DAT ' '     ;DESENHA ' '
0273   3020               M  MOVLW ' '
0274   00??               M  MOVWF LCD_DAT_INPUT
0275   2???               M  CALL DEF_LCD_DAT
                          M         LCD_DAT 'J'     ;DESENHA A
0276   304A               M  MOVLW 'J'
0277   00??               M  MOVWF LCD_DAT_INPUT
0278   2???               M  CALL DEF_LCD_DAT
                          M         LCD_DAT 'O'     ;DESENHA Z
0279   304F               M  MOVLW 'O'
027A   00??               M  MOVWF LCD_DAT_INPUT
027B   2???               M  CALL DEF_LCD_DAT
                          M         LCD_DAT 'G'     ;DESENHA E
027C   3047               M  MOVLW 'G'
027D   00??               M  MOVWF LCD_DAT_INPUT
027E   2???               M  CALL DEF_LCD_DAT
                          M         LCD_DAT 'A'     ;DESENHA V
027F   3041               M  MOVLW 'A'
0280   00??               M  MOVWF LCD_DAT_INPUT
0281   2???               M  CALL DEF_LCD_DAT
                          M         LCD_DAT 'R'     ;DESENHA E
0282   3052               M  MOVLW 'R'
0283   00??               M  MOVWF LCD_DAT_INPUT
0284   2???               M  CALL DEF_LCD_DAT
                          M         LCD_DAT ' '     ;DESENHA O
0285   3020               M  MOVLW ' '
0286   00??               M  MOVWF LCD_DAT_INPUT
0287   2???               M  CALL DEF_LCD_DAT
                          M         LCD_DAT ' '     ;DESENHA ' '
0288   3020               M  MOVLW ' '
MPASM 5.87                          MAIN.ASM   6-6-2020  3:57:00         PAGE 49


LOC  OBJECT CODE     LINE SOURCE TEXT
  VALUE

0289   00??               M  MOVWF LCD_DAT_INPUT
028A   2???               M  CALL DEF_LCD_DAT
                          M         LCD_DAT '*'     ;DESENHA *
028B   302A               M  MOVLW '*'
028C   00??               M  MOVWF LCD_DAT_INPUT
028D   2???               M  CALL DEF_LCD_DAT
                          M         
                          M         LCD_CMD L_L4    ;LINHA 4
028E   30D0               M  MOVLW L_L4
028F   00??               M  MOVWF LCD_CMD_INPUT
0290   2???               M  CALL DEF_LCD_CMD
                          M         LCD_DAT D'42'
0291   302A               M  MOVLW D'42'
0292   00??               M  MOVWF LCD_DAT_INPUT
0293   2???               M  CALL DEF_LCD_DAT
                          M         LCD_DAT D'42'
0294   302A               M  MOVLW D'42'
0295   00??               M  MOVWF LCD_DAT_INPUT
0296   2???               M  CALL DEF_LCD_DAT
                          M         LCD_DAT D'42'
0297   302A               M  MOVLW D'42'
0298   00??               M  MOVWF LCD_DAT_INPUT
0299   2???               M  CALL DEF_LCD_DAT
                          M         LCD_DAT D'42'
029A   302A               M  MOVLW D'42'
029B   00??               M  MOVWF LCD_DAT_INPUT
029C   2???               M  CALL DEF_LCD_DAT
                          M         LCD_DAT D'42'
029D   302A               M  MOVLW D'42'
029E   00??               M  MOVWF LCD_DAT_INPUT
029F   2???               M  CALL DEF_LCD_DAT
                          M         LCD_DAT D'42'
02A0   302A               M  MOVLW D'42'
02A1   00??               M  MOVWF LCD_DAT_INPUT
02A2   2???               M  CALL DEF_LCD_DAT
                          M         LCD_DAT D'42'
02A3   302A               M  MOVLW D'42'
02A4   00??               M  MOVWF LCD_DAT_INPUT
02A5   2???               M  CALL DEF_LCD_DAT
                          M         LCD_DAT D'42'
02A6   302A               M  MOVLW D'42'
02A7   00??               M  MOVWF LCD_DAT_INPUT
02A8   2???               M  CALL DEF_LCD_DAT
                          M         LCD_DAT D'42'
02A9   302A               M  MOVLW D'42'
02AA   00??               M  MOVWF LCD_DAT_INPUT
02AB   2???               M  CALL DEF_LCD_DAT
                          M         LCD_DAT D'42'
02AC   302A               M  MOVLW D'42'
02AD   00??               M  MOVWF LCD_DAT_INPUT
02AE   2???               M  CALL DEF_LCD_DAT
                          M         LCD_DAT D'42'
02AF   302A               M  MOVLW D'42'
MPASM 5.87                          MAIN.ASM   6-6-2020  3:57:00         PAGE 50


LOC  OBJECT CODE     LINE SOURCE TEXT
  VALUE

02B0   00??               M  MOVWF LCD_DAT_INPUT
02B1   2???               M  CALL DEF_LCD_DAT
                          M         LCD_DAT D'42'
02B2   302A               M  MOVLW D'42'
02B3   00??               M  MOVWF LCD_DAT_INPUT
02B4   2???               M  CALL DEF_LCD_DAT
                          M         LCD_DAT D'42'
02B5   302A               M  MOVLW D'42'
02B6   00??               M  MOVWF LCD_DAT_INPUT
02B7   2???               M  CALL DEF_LCD_DAT
                          M         LCD_DAT D'42'
02B8   302A               M  MOVLW D'42'
02B9   00??               M  MOVWF LCD_DAT_INPUT
02BA   2???               M  CALL DEF_LCD_DAT
                          M         LCD_DAT D'42'
02BB   302A               M  MOVLW D'42'
02BC   00??               M  MOVWF LCD_DAT_INPUT
02BD   2???               M  CALL DEF_LCD_DAT
                          M         LCD_DAT D'42'
02BE   302A               M  MOVLW D'42'
02BF   00??               M  MOVWF LCD_DAT_INPUT
02C0   2???               M  CALL DEF_LCD_DAT
                          M         
02C1   0008               M         RETURN
                      00101  DEFINE_DISPLAY_FUNCS
                          M  #IFNDEF DEFINE_DISPLAY_FUNC_HEAD
                          M  #DEFINE DEFINE_DISPLAY_FUNC_HEAD
                          M  
Warning[207]: Found label after column 1. (ENABLE_DISPLAY)
02C2                      M    ENABLE_DISPLAY:
                          M         BANK1
02C2   1303               M  BCF STATUS, RP1
02C3   1683               M  BSF STATUS, RP0
02C4   3008               M         MOVLW   B'00001000'
Message[302]: Register in operand not in bank 0.  Ensure that bank bits are correct.
02C5   0086               M         MOVWF   TRISB
Message[302]: Register in operand not in bank 0.  Ensure that bank bits are correct.
02C6   0188               M         CLRF    TRISD
Message[302]: Register in operand not in bank 0.  Ensure that bank bits are correct.
02C7   0185               M         CLRF    TRISA
                          M         BANK0
02C8   1303               M  BCF STATUS, RP1
02C9   1283               M  BCF STATUS, RP0
02CA   0186               M         CLRF PORTB 
02CB   0188               M         CLRF PORTD
02CC   0008               M         RETURN
                          M     
Warning[207]: Found label after column 1. (CORNIO_DISPLAY_F_DEF)
02CD                      M    CORNIO_DISPLAY_F_DEF:
                          M         CMPFL CORNIO_DISPLAY_TO_DRAW_VALUE,D'9'
02CD   08??               M  MOVF CORNIO_DISPLAY_TO_DRAW_VALUE,W
02CE   3C09               M  SUBLW D'9'
                          M         JE CORNIO_DRAW_9
MPASM 5.87                          MAIN.ASM   6-6-2020  3:57:00         PAGE 51


LOC  OBJECT CODE     LINE SOURCE TEXT
  VALUE

02CF   1903               M  BTFSC STATUS, Z
02D0   2???               M  GOTO CORNIO_DRAW_9
                          M         CMPFL CORNIO_DISPLAY_TO_DRAW_VALUE,D'8'
02D1   08??               M  MOVF CORNIO_DISPLAY_TO_DRAW_VALUE,W
02D2   3C08               M  SUBLW D'8'
                          M         JE CORNIO_DRAW_8
02D3   1903               M  BTFSC STATUS, Z
02D4   2???               M  GOTO CORNIO_DRAW_8
                          M         CMPFL CORNIO_DISPLAY_TO_DRAW_VALUE,D'7'
02D5   08??               M  MOVF CORNIO_DISPLAY_TO_DRAW_VALUE,W
02D6   3C07               M  SUBLW D'7'
                          M         JE CORNIO_DRAW_7
02D7   1903               M  BTFSC STATUS, Z
02D8   2???               M  GOTO CORNIO_DRAW_7
                          M         CMPFL CORNIO_DISPLAY_TO_DRAW_VALUE,D'6'
02D9   08??               M  MOVF CORNIO_DISPLAY_TO_DRAW_VALUE,W
02DA   3C06               M  SUBLW D'6'
                          M         JE CORNIO_DRAW_6
02DB   1903               M  BTFSC STATUS, Z
02DC   2???               M  GOTO CORNIO_DRAW_6
                          M         CMPFL CORNIO_DISPLAY_TO_DRAW_VALUE,D'5'
02DD   08??               M  MOVF CORNIO_DISPLAY_TO_DRAW_VALUE,W
02DE   3C05               M  SUBLW D'5'
                          M         JE CORNIO_DRAW_5
02DF   1903               M  BTFSC STATUS, Z
02E0   2???               M  GOTO CORNIO_DRAW_5
                          M         CMPFL CORNIO_DISPLAY_TO_DRAW_VALUE,D'4'
02E1   08??               M  MOVF CORNIO_DISPLAY_TO_DRAW_VALUE,W
02E2   3C04               M  SUBLW D'4'
                          M         JE CORNIO_DRAW_4
02E3   1903               M  BTFSC STATUS, Z
02E4   2???               M  GOTO CORNIO_DRAW_4
                          M         CMPFL CORNIO_DISPLAY_TO_DRAW_VALUE,D'3'
02E5   08??               M  MOVF CORNIO_DISPLAY_TO_DRAW_VALUE,W
02E6   3C03               M  SUBLW D'3'
                          M         JE CORNIO_DRAW_3
02E7   1903               M  BTFSC STATUS, Z
02E8   2???               M  GOTO CORNIO_DRAW_3
                          M         CMPFL CORNIO_DISPLAY_TO_DRAW_VALUE,D'2'
02E9   08??               M  MOVF CORNIO_DISPLAY_TO_DRAW_VALUE,W
02EA   3C02               M  SUBLW D'2'
                          M         JE CORNIO_DRAW_2
02EB   1903               M  BTFSC STATUS, Z
02EC   2???               M  GOTO CORNIO_DRAW_2
                          M         CMPFL CORNIO_DISPLAY_TO_DRAW_VALUE,D'1'
02ED   08??               M  MOVF CORNIO_DISPLAY_TO_DRAW_VALUE,W
02EE   3C01               M  SUBLW D'1'
                          M         JE CORNIO_DRAW_1
02EF   1903               M  BTFSC STATUS, Z
02F0   2???               M  GOTO CORNIO_DRAW_1
                          M         CMPFL CORNIO_DISPLAY_TO_DRAW_VALUE,D'0'
02F1   08??               M  MOVF CORNIO_DISPLAY_TO_DRAW_VALUE,W
02F2   3C00               M  SUBLW D'0'
MPASM 5.87                          MAIN.ASM   6-6-2020  3:57:00         PAGE 52


LOC  OBJECT CODE     LINE SOURCE TEXT
  VALUE

                          M         JE CORNIO_DRAW_0
02F3   1903               M  BTFSC STATUS, Z
02F4   2???               M  GOTO CORNIO_DRAW_0
                          M         
02F5   2???               M         GOTO CORNIO_DISPLAY_F_DEF_EXIT
Warning[207]: Found label after column 1. (CORNIO_DRAW_9)
02F6                      M  CORNIO_DRAW_9:
                          M         CORNIO_DISPLAY CORNIO_DISPLAY_TO_DRAW_DISP,SHOW_9
                          M     MOVFF CORNIO_DISPLAY_TO_DRAW_DISP,PORTA 
02F6   08??               M  MOVF CORNIO_DISPLAY_TO_DRAW_DISP,W
02F7   0085               M  MOVWF PORTA
                          M     MOVLF SHOW_9,PORTD
02F8   3067               M  MOVLW SHOW_9
02F9   0088               M  MOVWF PORTD
                          M     DELAY_MS D'2'
02FA   30A5               M     MOVLW D'165' 
02FB   00??               M     MOVWF CORNIO_DELAY_FT1 
                          M     
02FC   3002               M     MOVLW D'2' 
02FD   00??               M     MOVWF CORNIO_DELAY_FT2
                          M     
02FE   0B??               M     DECFSZ CORNIO_DELAY_FT1,1 
02FF   2???               M     GOTO $-1 
0300   0B??               M     DECFSZ CORNIO_DELAY_FT2,1
0301   2???               M     GOTO $-3
0302   2???               M         GOTO CORNIO_DISPLAY_F_DEF_EXIT
Warning[207]: Found label after column 1. (CORNIO_DRAW_8)
0303                      M  CORNIO_DRAW_8:
                          M         CORNIO_DISPLAY CORNIO_DISPLAY_TO_DRAW_DISP,SHOW_8
                          M     MOVFF CORNIO_DISPLAY_TO_DRAW_DISP,PORTA 
0303   08??               M  MOVF CORNIO_DISPLAY_TO_DRAW_DISP,W
0304   0085               M  MOVWF PORTA
                          M     MOVLF SHOW_8,PORTD
0305   307F               M  MOVLW SHOW_8
0306   0088               M  MOVWF PORTD
                          M     DELAY_MS D'2'
0307   30A5               M     MOVLW D'165' 
0308   00??               M     MOVWF CORNIO_DELAY_FT1 
                          M     
0309   3002               M     MOVLW D'2' 
030A   00??               M     MOVWF CORNIO_DELAY_FT2
                          M     
030B   0B??               M     DECFSZ CORNIO_DELAY_FT1,1 
030C   2???               M     GOTO $-1 
030D   0B??               M     DECFSZ CORNIO_DELAY_FT2,1
030E   2???               M     GOTO $-3
030F   2???               M         GOTO CORNIO_DISPLAY_F_DEF_EXIT
Warning[207]: Found label after column 1. (CORNIO_DRAW_7)
0310                      M  CORNIO_DRAW_7:
                          M         CORNIO_DISPLAY CORNIO_DISPLAY_TO_DRAW_DISP,SHOW_7
                          M     MOVFF CORNIO_DISPLAY_TO_DRAW_DISP,PORTA 
0310   08??               M  MOVF CORNIO_DISPLAY_TO_DRAW_DISP,W
0311   0085               M  MOVWF PORTA
MPASM 5.87                          MAIN.ASM   6-6-2020  3:57:00         PAGE 53


LOC  OBJECT CODE     LINE SOURCE TEXT
  VALUE

                          M     MOVLF SHOW_7,PORTD
0312   3027               M  MOVLW SHOW_7
0313   0088               M  MOVWF PORTD
                          M     DELAY_MS D'2'
0314   30A5               M     MOVLW D'165' 
0315   00??               M     MOVWF CORNIO_DELAY_FT1 
                          M     
0316   3002               M     MOVLW D'2' 
0317   00??               M     MOVWF CORNIO_DELAY_FT2
                          M     
0318   0B??               M     DECFSZ CORNIO_DELAY_FT1,1 
0319   2???               M     GOTO $-1 
031A   0B??               M     DECFSZ CORNIO_DELAY_FT2,1
031B   2???               M     GOTO $-3
031C   2???               M         GOTO CORNIO_DISPLAY_F_DEF_EXIT
Warning[207]: Found label after column 1. (CORNIO_DRAW_6)
031D                      M  CORNIO_DRAW_6:
                          M         CORNIO_DISPLAY CORNIO_DISPLAY_TO_DRAW_DISP,SHOW_6
                          M     MOVFF CORNIO_DISPLAY_TO_DRAW_DISP,PORTA 
031D   08??               M  MOVF CORNIO_DISPLAY_TO_DRAW_DISP,W
031E   0085               M  MOVWF PORTA
                          M     MOVLF SHOW_6,PORTD
031F   307D               M  MOVLW SHOW_6
0320   0088               M  MOVWF PORTD
                          M     DELAY_MS D'2'
0321   30A5               M     MOVLW D'165' 
0322   00??               M     MOVWF CORNIO_DELAY_FT1 
                          M     
0323   3002               M     MOVLW D'2' 
0324   00??               M     MOVWF CORNIO_DELAY_FT2
                          M     
0325   0B??               M     DECFSZ CORNIO_DELAY_FT1,1 
0326   2???               M     GOTO $-1 
0327   0B??               M     DECFSZ CORNIO_DELAY_FT2,1
0328   2???               M     GOTO $-3
0329   2???               M         GOTO CORNIO_DISPLAY_F_DEF_EXIT
Warning[207]: Found label after column 1. (CORNIO_DRAW_5)
032A                      M  CORNIO_DRAW_5:
                          M         CORNIO_DISPLAY CORNIO_DISPLAY_TO_DRAW_DISP,SHOW_5
                          M     MOVFF CORNIO_DISPLAY_TO_DRAW_DISP,PORTA 
032A   08??               M  MOVF CORNIO_DISPLAY_TO_DRAW_DISP,W
032B   0085               M  MOVWF PORTA
                          M     MOVLF SHOW_5,PORTD
032C   306D               M  MOVLW SHOW_5
032D   0088               M  MOVWF PORTD
                          M     DELAY_MS D'2'
032E   30A5               M     MOVLW D'165' 
032F   00??               M     MOVWF CORNIO_DELAY_FT1 
                          M     
0330   3002               M     MOVLW D'2' 
0331   00??               M     MOVWF CORNIO_DELAY_FT2
                          M     
0332   0B??               M     DECFSZ CORNIO_DELAY_FT1,1 
MPASM 5.87                          MAIN.ASM   6-6-2020  3:57:00         PAGE 54


LOC  OBJECT CODE     LINE SOURCE TEXT
  VALUE

0333   2???               M     GOTO $-1 
0334   0B??               M     DECFSZ CORNIO_DELAY_FT2,1
0335   2???               M     GOTO $-3
0336   2???               M         GOTO CORNIO_DISPLAY_F_DEF_EXIT
Warning[207]: Found label after column 1. (CORNIO_DRAW_4)
0337                      M  CORNIO_DRAW_4:
                          M         CORNIO_DISPLAY CORNIO_DISPLAY_TO_DRAW_DISP,SHOW_4
                          M     MOVFF CORNIO_DISPLAY_TO_DRAW_DISP,PORTA 
0337   08??               M  MOVF CORNIO_DISPLAY_TO_DRAW_DISP,W
0338   0085               M  MOVWF PORTA
                          M     MOVLF SHOW_4,PORTD
0339   3066               M  MOVLW SHOW_4
033A   0088               M  MOVWF PORTD
                          M     DELAY_MS D'2'
033B   30A5               M     MOVLW D'165' 
033C   00??               M     MOVWF CORNIO_DELAY_FT1 
                          M     
033D   3002               M     MOVLW D'2' 
033E   00??               M     MOVWF CORNIO_DELAY_FT2
                          M     
033F   0B??               M     DECFSZ CORNIO_DELAY_FT1,1 
0340   2???               M     GOTO $-1 
0341   0B??               M     DECFSZ CORNIO_DELAY_FT2,1
0342   2???               M     GOTO $-3
0343   2???               M         GOTO CORNIO_DISPLAY_F_DEF_EXIT
Warning[207]: Found label after column 1. (CORNIO_DRAW_3)
0344                      M  CORNIO_DRAW_3:
                          M         CORNIO_DISPLAY CORNIO_DISPLAY_TO_DRAW_DISP,SHOW_3
                          M     MOVFF CORNIO_DISPLAY_TO_DRAW_DISP,PORTA 
0344   08??               M  MOVF CORNIO_DISPLAY_TO_DRAW_DISP,W
0345   0085               M  MOVWF PORTA
                          M     MOVLF SHOW_3,PORTD
0346   304F               M  MOVLW SHOW_3
0347   0088               M  MOVWF PORTD
                          M     DELAY_MS D'2'
0348   30A5               M     MOVLW D'165' 
0349   00??               M     MOVWF CORNIO_DELAY_FT1 
                          M     
034A   3002               M     MOVLW D'2' 
034B   00??               M     MOVWF CORNIO_DELAY_FT2
                          M     
034C   0B??               M     DECFSZ CORNIO_DELAY_FT1,1 
034D   2???               M     GOTO $-1 
034E   0B??               M     DECFSZ CORNIO_DELAY_FT2,1
034F   2???               M     GOTO $-3
0350   2???               M         GOTO CORNIO_DISPLAY_F_DEF_EXIT
Warning[207]: Found label after column 1. (CORNIO_DRAW_2)
0351                      M  CORNIO_DRAW_2:
                          M         CORNIO_DISPLAY CORNIO_DISPLAY_TO_DRAW_DISP,SHOW_2
                          M     MOVFF CORNIO_DISPLAY_TO_DRAW_DISP,PORTA 
0351   08??               M  MOVF CORNIO_DISPLAY_TO_DRAW_DISP,W
0352   0085               M  MOVWF PORTA
                          M     MOVLF SHOW_2,PORTD
MPASM 5.87                          MAIN.ASM   6-6-2020  3:57:00         PAGE 55


LOC  OBJECT CODE     LINE SOURCE TEXT
  VALUE

0353   305B               M  MOVLW SHOW_2
0354   0088               M  MOVWF PORTD
                          M     DELAY_MS D'2'
0355   30A5               M     MOVLW D'165' 
0356   00??               M     MOVWF CORNIO_DELAY_FT1 
                          M     
0357   3002               M     MOVLW D'2' 
0358   00??               M     MOVWF CORNIO_DELAY_FT2
                          M     
0359   0B??               M     DECFSZ CORNIO_DELAY_FT1,1 
035A   2???               M     GOTO $-1 
035B   0B??               M     DECFSZ CORNIO_DELAY_FT2,1
035C   2???               M     GOTO $-3
035D   2???               M         GOTO CORNIO_DISPLAY_F_DEF_EXIT
Warning[207]: Found label after column 1. (CORNIO_DRAW_1)
035E                      M  CORNIO_DRAW_1:
                          M         CORNIO_DISPLAY CORNIO_DISPLAY_TO_DRAW_DISP,SHOW_1
                          M     MOVFF CORNIO_DISPLAY_TO_DRAW_DISP,PORTA 
035E   08??               M  MOVF CORNIO_DISPLAY_TO_DRAW_DISP,W
035F   0085               M  MOVWF PORTA
                          M     MOVLF SHOW_1,PORTD
0360   3006               M  MOVLW SHOW_1
0361   0088               M  MOVWF PORTD
                          M     DELAY_MS D'2'
0362   30A5               M     MOVLW D'165' 
0363   00??               M     MOVWF CORNIO_DELAY_FT1 
                          M     
0364   3002               M     MOVLW D'2' 
0365   00??               M     MOVWF CORNIO_DELAY_FT2
                          M     
0366   0B??               M     DECFSZ CORNIO_DELAY_FT1,1 
0367   2???               M     GOTO $-1 
0368   0B??               M     DECFSZ CORNIO_DELAY_FT2,1
0369   2???               M     GOTO $-3
036A   2???               M         GOTO CORNIO_DISPLAY_F_DEF_EXIT
Warning[207]: Found label after column 1. (CORNIO_DRAW_0)
036B                      M  CORNIO_DRAW_0:
                          M         CORNIO_DISPLAY CORNIO_DISPLAY_TO_DRAW_DISP,SHOW_0
                          M     MOVFF CORNIO_DISPLAY_TO_DRAW_DISP,PORTA 
036B   08??               M  MOVF CORNIO_DISPLAY_TO_DRAW_DISP,W
036C   0085               M  MOVWF PORTA
                          M     MOVLF SHOW_0,PORTD
036D   303F               M  MOVLW SHOW_0
036E   0088               M  MOVWF PORTD
                          M     DELAY_MS D'2'
036F   30A5               M     MOVLW D'165' 
0370   00??               M     MOVWF CORNIO_DELAY_FT1 
                          M     
0371   3002               M     MOVLW D'2' 
0372   00??               M     MOVWF CORNIO_DELAY_FT2
                          M     
0373   0B??               M     DECFSZ CORNIO_DELAY_FT1,1 
0374   2???               M     GOTO $-1 
MPASM 5.87                          MAIN.ASM   6-6-2020  3:57:00         PAGE 56


LOC  OBJECT CODE     LINE SOURCE TEXT
  VALUE

0375   0B??               M     DECFSZ CORNIO_DELAY_FT2,1
0376   2???               M     GOTO $-3
0377   2???               M         GOTO CORNIO_DISPLAY_F_DEF_EXIT
Warning[207]: Found label after column 1. (CORNIO_DISPLAY_F_DEF_EXIT)
0378                      M  CORNIO_DISPLAY_F_DEF_EXIT:
0378   0008               M     RETURN
                          M     
                          M     
                          M     #ENDIF
                      00102  TELA_GAME_DEFINE_FUNCS
                          M  
0379                      M TELA_GAME:
0379   2???               M     CALL LCD_ENABLE
                          M     MOVFF PONTUACAO_D,TEMP_PT_D
037A   08??               M  MOVF PONTUACAO_D,W
037B   00??               M  MOVWF TEMP_PT_D
                          M     MOVFF PONTUACAO_U,TEMP_PT_U
037C   08??               M  MOVF PONTUACAO_U,W
037D   00??               M  MOVWF TEMP_PT_U
037E   3030               M     MOVLW D'48'
Message[305]: Using default destination of 1 (file).
037F   07??               M     ADDWF TEMP_PT_D
Message[305]: Using default destination of 1 (file).
0380   07??               M     ADDWF TEMP_PT_U
                          M     LCD_CMD L_L1
0381   3080               M  MOVLW L_L1
0382   00??               M  MOVWF LCD_CMD_INPUT
0383   2???               M  CALL DEF_LCD_CMD
                          M     LCD_DAT 'P'
0384   3050               M  MOVLW 'P'
0385   00??               M  MOVWF LCD_DAT_INPUT
0386   2???               M  CALL DEF_LCD_DAT
                          M     LCD_DAT 'O'
0387   304F               M  MOVLW 'O'
0388   00??               M  MOVWF LCD_DAT_INPUT
0389   2???               M  CALL DEF_LCD_DAT
                          M     LCD_DAT 'N'
038A   304E               M  MOVLW 'N'
038B   00??               M  MOVWF LCD_DAT_INPUT
038C   2???               M  CALL DEF_LCD_DAT
                          M     LCD_DAT 'T'
038D   3054               M  MOVLW 'T'
038E   00??               M  MOVWF LCD_DAT_INPUT
038F   2???               M  CALL DEF_LCD_DAT
                          M     LCD_DAT 'O'
0390   304F               M  MOVLW 'O'
0391   00??               M  MOVWF LCD_DAT_INPUT
0392   2???               M  CALL DEF_LCD_DAT
                          M     LCD_DAT 'S'
0393   3053               M  MOVLW 'S'
0394   00??               M  MOVWF LCD_DAT_INPUT
0395   2???               M  CALL DEF_LCD_DAT
                          M     LCD_DAT ':'
MPASM 5.87                          MAIN.ASM   6-6-2020  3:57:00         PAGE 57


LOC  OBJECT CODE     LINE SOURCE TEXT
  VALUE

0396   303A               M  MOVLW ':'
0397   00??               M  MOVWF LCD_DAT_INPUT
0398   2???               M  CALL DEF_LCD_DAT
                          M     LCD_DAT_F TEMP_PT_D
0399   08??               M  MOVF TEMP_PT_D,0
039A   00??               M  MOVWF LCD_DAT_INPUT
039B   2???               M  CALL DEF_LCD_DAT
                          M     LCD_DAT_F TEMP_PT_U
039C   08??               M  MOVF TEMP_PT_U,0
039D   00??               M  MOVWF LCD_DAT_INPUT
039E   2???               M  CALL DEF_LCD_DAT
                          M     
                          M     CMPFL VOANDO,1
039F   08??               M  MOVF VOANDO,W
03A0   3C01               M  SUBLW 1
                          M     JNE  PLAYER_ON_4
03A1   1D03               M  BTFSS STATUS, Z
03A2   2???               M  GOTO PLAYER_ON_4
                          M   
Warning[207]: Found label after column 1. (PLAYER_ON_3)
03A3                      M  PLAYER_ON_3:    
                          M         LCD_CMD L_L3    ;LINHA 3
03A3   3090               M  MOVLW L_L3
03A4   00??               M  MOVWF LCD_CMD_INPUT
03A5   2???               M  CALL DEF_LCD_CMD
                          M         LCD_DAT ' '
03A6   3020               M  MOVLW ' '
03A7   00??               M  MOVWF LCD_DAT_INPUT
03A8   2???               M  CALL DEF_LCD_DAT
                          M         LCD_DAT ' '
03A9   3020               M  MOVLW ' '
03AA   00??               M  MOVWF LCD_DAT_INPUT
03AB   2???               M  CALL DEF_LCD_DAT
                          M         LCD_DAT ' '
03AC   3020               M  MOVLW ' '
03AD   00??               M  MOVWF LCD_DAT_INPUT
03AE   2???               M  CALL DEF_LCD_DAT
                          M         LCD_DAT ' '
03AF   3020               M  MOVLW ' '
03B0   00??               M  MOVWF LCD_DAT_INPUT
03B1   2???               M  CALL DEF_LCD_DAT
                          M         LCD_DAT ' '
03B2   3020               M  MOVLW ' '
03B3   00??               M  MOVWF LCD_DAT_INPUT
03B4   2???               M  CALL DEF_LCD_DAT
                          M         LCD_DAT ' '
03B5   3020               M  MOVLW ' '
03B6   00??               M  MOVWF LCD_DAT_INPUT
03B7   2???               M  CALL DEF_LCD_DAT
                          M         LCD_DAT ' '
03B8   3020               M  MOVLW ' '
03B9   00??               M  MOVWF LCD_DAT_INPUT
03BA   2???               M  CALL DEF_LCD_DAT
MPASM 5.87                          MAIN.ASM   6-6-2020  3:57:00         PAGE 58


LOC  OBJECT CODE     LINE SOURCE TEXT
  VALUE

                          M         LCD_DAT 'R'
03BB   3052               M  MOVLW 'R'
03BC   00??               M  MOVWF LCD_DAT_INPUT
03BD   2???               M  CALL DEF_LCD_DAT
                          M         
                          M         
                          M         LCD_CMD L_L4    ;LINHA 4
03BE   30D0               M  MOVLW L_L4
03BF   00??               M  MOVWF LCD_CMD_INPUT
03C0   2???               M  CALL DEF_LCD_CMD
                          M         DESENHA_PEDRA CENA_LINHA_4_1,7
03C1   1F80               M     BTFSS CENA_LINHA_4_1,7
03C2   2???               M     GOTO $+2
03C3   2???               M     GOTO $+5
                          M     LCD_DAT ' '
03C4   3020               M  MOVLW ' '
03C5   00??               M  MOVWF LCD_DAT_INPUT
03C6   2???               M  CALL DEF_LCD_DAT
03C7   2???               M     GOTO $+4
                          M     LCD_DAT '@'
03C8   3040               M  MOVLW '@'
03C9   00??               M  MOVWF LCD_DAT_INPUT
03CA   2???               M  CALL DEF_LCD_DAT
03CB   0000               M     NOP
                          M         DESENHA_PEDRA CENA_LINHA_4_1,6
03CC   1F00               M     BTFSS CENA_LINHA_4_1,6
03CD   2???               M     GOTO $+2
03CE   2???               M     GOTO $+5
                          M     LCD_DAT ' '
03CF   3020               M  MOVLW ' '
03D0   00??               M  MOVWF LCD_DAT_INPUT
03D1   2???               M  CALL DEF_LCD_DAT
03D2   2???               M     GOTO $+4
                          M     LCD_DAT '@'
03D3   3040               M  MOVLW '@'
03D4   00??               M  MOVWF LCD_DAT_INPUT
03D5   2???               M  CALL DEF_LCD_DAT
03D6   0000               M     NOP
                          M         DESENHA_PEDRA CENA_LINHA_4_1,5
03D7   1E80               M     BTFSS CENA_LINHA_4_1,5
03D8   2???               M     GOTO $+2
03D9   2???               M     GOTO $+5
                          M     LCD_DAT ' '
03DA   3020               M  MOVLW ' '
03DB   00??               M  MOVWF LCD_DAT_INPUT
03DC   2???               M  CALL DEF_LCD_DAT
03DD   2???               M     GOTO $+4
                          M     LCD_DAT '@'
03DE   3040               M  MOVLW '@'
03DF   00??               M  MOVWF LCD_DAT_INPUT
03E0   2???               M  CALL DEF_LCD_DAT
03E1   0000               M     NOP
                          M         DESENHA_PEDRA CENA_LINHA_4_1,4
MPASM 5.87                          MAIN.ASM   6-6-2020  3:57:00         PAGE 59


LOC  OBJECT CODE     LINE SOURCE TEXT
  VALUE

03E2   1E00               M     BTFSS CENA_LINHA_4_1,4
03E3   2???               M     GOTO $+2
03E4   2???               M     GOTO $+5
                          M     LCD_DAT ' '
03E5   3020               M  MOVLW ' '
03E6   00??               M  MOVWF LCD_DAT_INPUT
03E7   2???               M  CALL DEF_LCD_DAT
03E8   2???               M     GOTO $+4
                          M     LCD_DAT '@'
03E9   3040               M  MOVLW '@'
03EA   00??               M  MOVWF LCD_DAT_INPUT
03EB   2???               M  CALL DEF_LCD_DAT
03EC   0000               M     NOP
                          M         DESENHA_PEDRA CENA_LINHA_4_1,3
03ED   1D80               M     BTFSS CENA_LINHA_4_1,3
03EE   2???               M     GOTO $+2
03EF   2???               M     GOTO $+5
                          M     LCD_DAT ' '
03F0   3020               M  MOVLW ' '
03F1   00??               M  MOVWF LCD_DAT_INPUT
03F2   2???               M  CALL DEF_LCD_DAT
03F3   2???               M     GOTO $+4
                          M     LCD_DAT '@'
03F4   3040               M  MOVLW '@'
03F5   00??               M  MOVWF LCD_DAT_INPUT
03F6   2???               M  CALL DEF_LCD_DAT
03F7   0000               M     NOP
                          M         DESENHA_PEDRA CENA_LINHA_4_1,2
03F8   1D00               M     BTFSS CENA_LINHA_4_1,2
03F9   2???               M     GOTO $+2
03FA   2???               M     GOTO $+5
                          M     LCD_DAT ' '
03FB   3020               M  MOVLW ' '
03FC   00??               M  MOVWF LCD_DAT_INPUT
03FD   2???               M  CALL DEF_LCD_DAT
03FE   2???               M     GOTO $+4
                          M     LCD_DAT '@'
03FF   3040               M  MOVLW '@'
0400   00??               M  MOVWF LCD_DAT_INPUT
0401   2???               M  CALL DEF_LCD_DAT
0402   0000               M     NOP
                          M         DESENHA_PEDRA CENA_LINHA_4_1,1
0403   1C80               M     BTFSS CENA_LINHA_4_1,1
0404   2???               M     GOTO $+2
0405   2???               M     GOTO $+5
                          M     LCD_DAT ' '
0406   3020               M  MOVLW ' '
0407   00??               M  MOVWF LCD_DAT_INPUT
0408   2???               M  CALL DEF_LCD_DAT
0409   2???               M     GOTO $+4
                          M     LCD_DAT '@'
040A   3040               M  MOVLW '@'
040B   00??               M  MOVWF LCD_DAT_INPUT
MPASM 5.87                          MAIN.ASM   6-6-2020  3:57:00         PAGE 60


LOC  OBJECT CODE     LINE SOURCE TEXT
  VALUE

040C   2???               M  CALL DEF_LCD_DAT
040D   0000               M     NOP
                          M         DESENHA_PEDRA CENA_LINHA_4_1,0
040E   1C00               M     BTFSS CENA_LINHA_4_1,0
040F   2???               M     GOTO $+2
0410   2???               M     GOTO $+5
                          M     LCD_DAT ' '
0411   3020               M  MOVLW ' '
0412   00??               M  MOVWF LCD_DAT_INPUT
0413   2???               M  CALL DEF_LCD_DAT
0414   2???               M     GOTO $+4
                          M     LCD_DAT '@'
0415   3040               M  MOVLW '@'
0416   00??               M  MOVWF LCD_DAT_INPUT
0417   2???               M  CALL DEF_LCD_DAT
0418   0000               M     NOP
                          M         DESENHA_PEDRA CENA_LINHA_4,7
0419   1F80               M     BTFSS CENA_LINHA_4,7
041A   2???               M     GOTO $+2
041B   2???               M     GOTO $+5
                          M     LCD_DAT ' '
041C   3020               M  MOVLW ' '
041D   00??               M  MOVWF LCD_DAT_INPUT
041E   2???               M  CALL DEF_LCD_DAT
041F   2???               M     GOTO $+4
                          M     LCD_DAT '@'
0420   3040               M  MOVLW '@'
0421   00??               M  MOVWF LCD_DAT_INPUT
0422   2???               M  CALL DEF_LCD_DAT
0423   0000               M     NOP
                          M         DESENHA_PEDRA CENA_LINHA_4,6
0424   1F00               M     BTFSS CENA_LINHA_4,6
0425   2???               M     GOTO $+2
0426   2???               M     GOTO $+5
                          M     LCD_DAT ' '
0427   3020               M  MOVLW ' '
0428   00??               M  MOVWF LCD_DAT_INPUT
0429   2???               M  CALL DEF_LCD_DAT
042A   2???               M     GOTO $+4
                          M     LCD_DAT '@'
042B   3040               M  MOVLW '@'
042C   00??               M  MOVWF LCD_DAT_INPUT
042D   2???               M  CALL DEF_LCD_DAT
042E   0000               M     NOP
                          M         DESENHA_PEDRA CENA_LINHA_4,5
042F   1E80               M     BTFSS CENA_LINHA_4,5
0430   2???               M     GOTO $+2
0431   2???               M     GOTO $+5
                          M     LCD_DAT ' '
0432   3020               M  MOVLW ' '
0433   00??               M  MOVWF LCD_DAT_INPUT
0434   2???               M  CALL DEF_LCD_DAT
0435   2???               M     GOTO $+4
MPASM 5.87                          MAIN.ASM   6-6-2020  3:57:00         PAGE 61


LOC  OBJECT CODE     LINE SOURCE TEXT
  VALUE

                          M     LCD_DAT '@'
0436   3040               M  MOVLW '@'
0437   00??               M  MOVWF LCD_DAT_INPUT
0438   2???               M  CALL DEF_LCD_DAT
0439   0000               M     NOP
                          M         DESENHA_PEDRA CENA_LINHA_4,4
043A   1E00               M     BTFSS CENA_LINHA_4,4
043B   2???               M     GOTO $+2
043C   2???               M     GOTO $+5
                          M     LCD_DAT ' '
043D   3020               M  MOVLW ' '
043E   00??               M  MOVWF LCD_DAT_INPUT
043F   2???               M  CALL DEF_LCD_DAT
0440   2???               M     GOTO $+4
                          M     LCD_DAT '@'
0441   3040               M  MOVLW '@'
0442   00??               M  MOVWF LCD_DAT_INPUT
0443   2???               M  CALL DEF_LCD_DAT
0444   0000               M     NOP
                          M         DESENHA_PEDRA CENA_LINHA_4,3
0445   1D80               M     BTFSS CENA_LINHA_4,3
0446   2???               M     GOTO $+2
0447   2???               M     GOTO $+5
                          M     LCD_DAT ' '
0448   3020               M  MOVLW ' '
0449   00??               M  MOVWF LCD_DAT_INPUT
044A   2???               M  CALL DEF_LCD_DAT
044B   2???               M     GOTO $+4
                          M     LCD_DAT '@'
044C   3040               M  MOVLW '@'
044D   00??               M  MOVWF LCD_DAT_INPUT
044E   2???               M  CALL DEF_LCD_DAT
044F   0000               M     NOP
                          M         DESENHA_PEDRA CENA_LINHA_4,2
0450   1D00               M     BTFSS CENA_LINHA_4,2
0451   2???               M     GOTO $+2
0452   2???               M     GOTO $+5
                          M     LCD_DAT ' '
0453   3020               M  MOVLW ' '
0454   00??               M  MOVWF LCD_DAT_INPUT
0455   2???               M  CALL DEF_LCD_DAT
0456   2???               M     GOTO $+4
                          M     LCD_DAT '@'
0457   3040               M  MOVLW '@'
0458   00??               M  MOVWF LCD_DAT_INPUT
0459   2???               M  CALL DEF_LCD_DAT
045A   0000               M     NOP
                          M         DESENHA_PEDRA CENA_LINHA_4,1
045B   1C80               M     BTFSS CENA_LINHA_4,1
045C   2???               M     GOTO $+2
045D   2???               M     GOTO $+5
                          M     LCD_DAT ' '
045E   3020               M  MOVLW ' '
MPASM 5.87                          MAIN.ASM   6-6-2020  3:57:00         PAGE 62


LOC  OBJECT CODE     LINE SOURCE TEXT
  VALUE

045F   00??               M  MOVWF LCD_DAT_INPUT
0460   2???               M  CALL DEF_LCD_DAT
0461   2???               M     GOTO $+4
                          M     LCD_DAT '@'
0462   3040               M  MOVLW '@'
0463   00??               M  MOVWF LCD_DAT_INPUT
0464   2???               M  CALL DEF_LCD_DAT
0465   0000               M     NOP
                          M         DESENHA_PEDRA CENA_LINHA_4,0
0466   1C00               M     BTFSS CENA_LINHA_4,0
0467   2???               M     GOTO $+2
0468   2???               M     GOTO $+5
                          M     LCD_DAT ' '
0469   3020               M  MOVLW ' '
046A   00??               M  MOVWF LCD_DAT_INPUT
046B   2???               M  CALL DEF_LCD_DAT
046C   2???               M     GOTO $+4
                          M     LCD_DAT '@'
046D   3040               M  MOVLW '@'
046E   00??               M  MOVWF LCD_DAT_INPUT
046F   2???               M  CALL DEF_LCD_DAT
0470   0000               M     NOP
                          M         
0471   2???               M         GOTO END_PLAYER_DRAW
Warning[207]: Found label after column 1. (PLAYER_ON_4)
0472                      M  PLAYER_ON_4:
                          M         
                          M         LCD_CMD L_L3    ;LINHA 3
0472   3090               M  MOVLW L_L3
0473   00??               M  MOVWF LCD_CMD_INPUT
0474   2???               M  CALL DEF_LCD_CMD
                          M         LCD_DAT ' '
0475   3020               M  MOVLW ' '
0476   00??               M  MOVWF LCD_DAT_INPUT
0477   2???               M  CALL DEF_LCD_DAT
                          M         LCD_DAT ' '
0478   3020               M  MOVLW ' '
0479   00??               M  MOVWF LCD_DAT_INPUT
047A   2???               M  CALL DEF_LCD_DAT
                          M         LCD_DAT ' '
047B   3020               M  MOVLW ' '
047C   00??               M  MOVWF LCD_DAT_INPUT
047D   2???               M  CALL DEF_LCD_DAT
                          M         LCD_DAT ' '
047E   3020               M  MOVLW ' '
047F   00??               M  MOVWF LCD_DAT_INPUT
0480   2???               M  CALL DEF_LCD_DAT
                          M         LCD_DAT ' '
0481   3020               M  MOVLW ' '
0482   00??               M  MOVWF LCD_DAT_INPUT
0483   2???               M  CALL DEF_LCD_DAT
                          M         LCD_DAT ' '
0484   3020               M  MOVLW ' '
MPASM 5.87                          MAIN.ASM   6-6-2020  3:57:00         PAGE 63


LOC  OBJECT CODE     LINE SOURCE TEXT
  VALUE

0485   00??               M  MOVWF LCD_DAT_INPUT
0486   2???               M  CALL DEF_LCD_DAT
                          M         LCD_DAT ' '
0487   3020               M  MOVLW ' '
0488   00??               M  MOVWF LCD_DAT_INPUT
0489   2???               M  CALL DEF_LCD_DAT
                          M         LCD_DAT ' '
048A   3020               M  MOVLW ' '
048B   00??               M  MOVWF LCD_DAT_INPUT
048C   2???               M  CALL DEF_LCD_DAT
                          M         
                          M         LCD_CMD L_L4
048D   30D0               M  MOVLW L_L4
048E   00??               M  MOVWF LCD_CMD_INPUT
048F   2???               M  CALL DEF_LCD_CMD
                          M         DESENHA_PEDRA CENA_LINHA_4_1,7
0490   1F80               M     BTFSS CENA_LINHA_4_1,7
0491   2???               M     GOTO $+2
0492   2???               M     GOTO $+5
                          M     LCD_DAT ' '
0493   3020               M  MOVLW ' '
0494   00??               M  MOVWF LCD_DAT_INPUT
0495   2???               M  CALL DEF_LCD_DAT
0496   2???               M     GOTO $+4
                          M     LCD_DAT '@'
0497   3040               M  MOVLW '@'
0498   00??               M  MOVWF LCD_DAT_INPUT
0499   2???               M  CALL DEF_LCD_DAT
049A   0000               M     NOP
                          M         DESENHA_PEDRA CENA_LINHA_4_1,6
049B   1F00               M     BTFSS CENA_LINHA_4_1,6
049C   2???               M     GOTO $+2
049D   2???               M     GOTO $+5
                          M     LCD_DAT ' '
049E   3020               M  MOVLW ' '
049F   00??               M  MOVWF LCD_DAT_INPUT
04A0   2???               M  CALL DEF_LCD_DAT
04A1   2???               M     GOTO $+4
                          M     LCD_DAT '@'
04A2   3040               M  MOVLW '@'
04A3   00??               M  MOVWF LCD_DAT_INPUT
04A4   2???               M  CALL DEF_LCD_DAT
04A5   0000               M     NOP
                          M         DESENHA_PEDRA CENA_LINHA_4_1,5
04A6   1E80               M     BTFSS CENA_LINHA_4_1,5
04A7   2???               M     GOTO $+2
04A8   2???               M     GOTO $+5
                          M     LCD_DAT ' '
04A9   3020               M  MOVLW ' '
04AA   00??               M  MOVWF LCD_DAT_INPUT
04AB   2???               M  CALL DEF_LCD_DAT
04AC   2???               M     GOTO $+4
                          M     LCD_DAT '@'
MPASM 5.87                          MAIN.ASM   6-6-2020  3:57:00         PAGE 64


LOC  OBJECT CODE     LINE SOURCE TEXT
  VALUE

04AD   3040               M  MOVLW '@'
04AE   00??               M  MOVWF LCD_DAT_INPUT
04AF   2???               M  CALL DEF_LCD_DAT
04B0   0000               M     NOP
                          M         DESENHA_PEDRA CENA_LINHA_4_1,4
04B1   1E00               M     BTFSS CENA_LINHA_4_1,4
04B2   2???               M     GOTO $+2
04B3   2???               M     GOTO $+5
                          M     LCD_DAT ' '
04B4   3020               M  MOVLW ' '
04B5   00??               M  MOVWF LCD_DAT_INPUT
04B6   2???               M  CALL DEF_LCD_DAT
04B7   2???               M     GOTO $+4
                          M     LCD_DAT '@'
04B8   3040               M  MOVLW '@'
04B9   00??               M  MOVWF LCD_DAT_INPUT
04BA   2???               M  CALL DEF_LCD_DAT
04BB   0000               M     NOP
                          M         DESENHA_PEDRA CENA_LINHA_4_1,3
04BC   1D80               M     BTFSS CENA_LINHA_4_1,3
04BD   2???               M     GOTO $+2
04BE   2???               M     GOTO $+5
                          M     LCD_DAT ' '
04BF   3020               M  MOVLW ' '
04C0   00??               M  MOVWF LCD_DAT_INPUT
04C1   2???               M  CALL DEF_LCD_DAT
04C2   2???               M     GOTO $+4
                          M     LCD_DAT '@'
04C3   3040               M  MOVLW '@'
04C4   00??               M  MOVWF LCD_DAT_INPUT
04C5   2???               M  CALL DEF_LCD_DAT
04C6   0000               M     NOP
                          M         DESENHA_PEDRA CENA_LINHA_4_1,2
04C7   1D00               M     BTFSS CENA_LINHA_4_1,2
04C8   2???               M     GOTO $+2
04C9   2???               M     GOTO $+5
                          M     LCD_DAT ' '
04CA   3020               M  MOVLW ' '
04CB   00??               M  MOVWF LCD_DAT_INPUT
04CC   2???               M  CALL DEF_LCD_DAT
04CD   2???               M     GOTO $+4
                          M     LCD_DAT '@'
04CE   3040               M  MOVLW '@'
04CF   00??               M  MOVWF LCD_DAT_INPUT
04D0   2???               M  CALL DEF_LCD_DAT
04D1   0000               M     NOP
                          M         DESENHA_PEDRA CENA_LINHA_4_1,1
04D2   1C80               M     BTFSS CENA_LINHA_4_1,1
04D3   2???               M     GOTO $+2
04D4   2???               M     GOTO $+5
                          M     LCD_DAT ' '
04D5   3020               M  MOVLW ' '
04D6   00??               M  MOVWF LCD_DAT_INPUT
MPASM 5.87                          MAIN.ASM   6-6-2020  3:57:00         PAGE 65


LOC  OBJECT CODE     LINE SOURCE TEXT
  VALUE

04D7   2???               M  CALL DEF_LCD_DAT
04D8   2???               M     GOTO $+4
                          M     LCD_DAT '@'
04D9   3040               M  MOVLW '@'
04DA   00??               M  MOVWF LCD_DAT_INPUT
04DB   2???               M  CALL DEF_LCD_DAT
04DC   0000               M     NOP
                          M         LCD_DAT 'R'
04DD   3052               M  MOVLW 'R'
04DE   00??               M  MOVWF LCD_DAT_INPUT
04DF   2???               M  CALL DEF_LCD_DAT
                          M         DESENHA_PEDRA CENA_LINHA_4,7
04E0   1F80               M     BTFSS CENA_LINHA_4,7
04E1   2???               M     GOTO $+2
04E2   2???               M     GOTO $+5
                          M     LCD_DAT ' '
04E3   3020               M  MOVLW ' '
04E4   00??               M  MOVWF LCD_DAT_INPUT
04E5   2???               M  CALL DEF_LCD_DAT
04E6   2???               M     GOTO $+4
                          M     LCD_DAT '@'
04E7   3040               M  MOVLW '@'
04E8   00??               M  MOVWF LCD_DAT_INPUT
04E9   2???               M  CALL DEF_LCD_DAT
04EA   0000               M     NOP
                          M         DESENHA_PEDRA CENA_LINHA_4,6
04EB   1F00               M     BTFSS CENA_LINHA_4,6
04EC   2???               M     GOTO $+2
04ED   2???               M     GOTO $+5
                          M     LCD_DAT ' '
04EE   3020               M  MOVLW ' '
04EF   00??               M  MOVWF LCD_DAT_INPUT
04F0   2???               M  CALL DEF_LCD_DAT
04F1   2???               M     GOTO $+4
                          M     LCD_DAT '@'
04F2   3040               M  MOVLW '@'
04F3   00??               M  MOVWF LCD_DAT_INPUT
04F4   2???               M  CALL DEF_LCD_DAT
04F5   0000               M     NOP
                          M         DESENHA_PEDRA CENA_LINHA_4,5
04F6   1E80               M     BTFSS CENA_LINHA_4,5
04F7   2???               M     GOTO $+2
04F8   2???               M     GOTO $+5
                          M     LCD_DAT ' '
04F9   3020               M  MOVLW ' '
04FA   00??               M  MOVWF LCD_DAT_INPUT
04FB   2???               M  CALL DEF_LCD_DAT
04FC   2???               M     GOTO $+4
                          M     LCD_DAT '@'
04FD   3040               M  MOVLW '@'
04FE   00??               M  MOVWF LCD_DAT_INPUT
04FF   2???               M  CALL DEF_LCD_DAT
0500   0000               M     NOP
MPASM 5.87                          MAIN.ASM   6-6-2020  3:57:00         PAGE 66


LOC  OBJECT CODE     LINE SOURCE TEXT
  VALUE

                          M         DESENHA_PEDRA CENA_LINHA_4,4
0501   1E00               M     BTFSS CENA_LINHA_4,4
0502   2???               M     GOTO $+2
0503   2???               M     GOTO $+5
                          M     LCD_DAT ' '
0504   3020               M  MOVLW ' '
0505   00??               M  MOVWF LCD_DAT_INPUT
0506   2???               M  CALL DEF_LCD_DAT
0507   2???               M     GOTO $+4
                          M     LCD_DAT '@'
0508   3040               M  MOVLW '@'
0509   00??               M  MOVWF LCD_DAT_INPUT
050A   2???               M  CALL DEF_LCD_DAT
050B   0000               M     NOP
                          M         DESENHA_PEDRA CENA_LINHA_4,3
050C   1D80               M     BTFSS CENA_LINHA_4,3
050D   2???               M     GOTO $+2
050E   2???               M     GOTO $+5
                          M     LCD_DAT ' '
050F   3020               M  MOVLW ' '
0510   00??               M  MOVWF LCD_DAT_INPUT
0511   2???               M  CALL DEF_LCD_DAT
0512   2???               M     GOTO $+4
                          M     LCD_DAT '@'
0513   3040               M  MOVLW '@'
0514   00??               M  MOVWF LCD_DAT_INPUT
0515   2???               M  CALL DEF_LCD_DAT
0516   0000               M     NOP
                          M         DESENHA_PEDRA CENA_LINHA_4,2
0517   1D00               M     BTFSS CENA_LINHA_4,2
0518   2???               M     GOTO $+2
0519   2???               M     GOTO $+5
                          M     LCD_DAT ' '
051A   3020               M  MOVLW ' '
051B   00??               M  MOVWF LCD_DAT_INPUT
051C   2???               M  CALL DEF_LCD_DAT
051D   2???               M     GOTO $+4
                          M     LCD_DAT '@'
051E   3040               M  MOVLW '@'
051F   00??               M  MOVWF LCD_DAT_INPUT
0520   2???               M  CALL DEF_LCD_DAT
0521   0000               M     NOP
                          M         DESENHA_PEDRA CENA_LINHA_4,1
0522   1C80               M     BTFSS CENA_LINHA_4,1
0523   2???               M     GOTO $+2
0524   2???               M     GOTO $+5
                          M     LCD_DAT ' '
0525   3020               M  MOVLW ' '
0526   00??               M  MOVWF LCD_DAT_INPUT
0527   2???               M  CALL DEF_LCD_DAT
0528   2???               M     GOTO $+4
                          M     LCD_DAT '@'
0529   3040               M  MOVLW '@'
MPASM 5.87                          MAIN.ASM   6-6-2020  3:57:00         PAGE 67


LOC  OBJECT CODE     LINE SOURCE TEXT
  VALUE

052A   00??               M  MOVWF LCD_DAT_INPUT
052B   2???               M  CALL DEF_LCD_DAT
052C   0000               M     NOP
                          M         DESENHA_PEDRA CENA_LINHA_4,0
052D   1C00               M     BTFSS CENA_LINHA_4,0
052E   2???               M     GOTO $+2
052F   2???               M     GOTO $+5
                          M     LCD_DAT ' '
0530   3020               M  MOVLW ' '
0531   00??               M  MOVWF LCD_DAT_INPUT
0532   2???               M  CALL DEF_LCD_DAT
0533   2???               M     GOTO $+4
                          M     LCD_DAT '@'
0534   3040               M  MOVLW '@'
0535   00??               M  MOVWF LCD_DAT_INPUT
0536   2???               M  CALL DEF_LCD_DAT
0537   0000               M     NOP
0538   2???               M         GOTO END_PLAYER_DRAW
                          M         
0539                      M END_PLAYER_DRAW:
0539   0008               M     RETURN
                          M  
                      00103  
053A                  00104 SETUP_TIMER_INT:                                                                ; CONFIGURA CONTADOR
                      00105  BANK1
053A   1303               M  BCF STATUS, RP1
053B   1683               M  BSF STATUS, RP0
Message[302]: Register in operand not in bank 0.  Ensure that bank bits are correct.
053C   1086           00106  BCF TRISB, RB1
Message[302]: Register in operand not in bank 0.  Ensure that bank bits are correct.
053D   1181           00107  BCF OPTION_REG, PSA                                                            ; HABILITA PSA PRO TIMER
                             0
Message[302]: Register in operand not in bank 0.  Ensure that bank bits are correct.
053E   1501           00108  BSF OPTION_REG, PS2
Message[302]: Register in operand not in bank 0.  Ensure that bank bits are correct.
053F   1481           00109  BSF OPTION_REG, PS1
Message[302]: Register in operand not in bank 0.  Ensure that bank bits are correct.
0540   1001           00110  BCF OPTION_REG, PS0
                      00111  BANK0
0541   1303               M  BCF STATUS, RP1
0542   1283               M  BCF STATUS, RP0
Message[302]: Register in operand not in bank 0.  Ensure that bank bits are correct.
0543   1086           00112  BCF TRISB, RB1
                      00113                                                                                 
                      00114                                                                                 
0544   307E           00115  MOVLW D'126'
0545   0081           00116  MOVWF TMR0
                      00117  
0546   303C           00118  MOVLW D'60'
0547   00??           00119  MOVWF TIMER_COUNT
                      00120  
0548   110B           00121  BCF INTCON, TMR0IF
0549   168B           00122  BSF INTCON, TMR0IE
MPASM 5.87                          MAIN.ASM   6-6-2020  3:57:00         PAGE 68


LOC  OBJECT CODE     LINE SOURCE TEXT
  VALUE

054A   178B           00123  BSF INTCON, GIE
054B   0008           00124  RETURN 
                      00125  
054C                  00126 TELA_INICIAL:                                                                                           
                                                       
054C   2???           00127  CALL LCD_INIT                                                                  ; INICIA O LCD
054D   2???           00128  CALL TELA_AP                                                                   ; MOSTRA A TELA INICIAL 
                            DO JOGO
                      00129  DELAY_S D'1'
054E   30A5               M     MOVLW D'165' 
054F   00??               M     MOVWF CORNIO_DELAY_FT1 
                          M     
0550   30FF               M     MOVLW D'255' 
0551   00??               M     MOVWF CORNIO_DELAY_FT2
                          M     
0552   3004               M     MOVLW D'4'
0553   00??               M     MOVWF CORNIO_DELAY_FT3
                          M     
0554   3001               M     MOVLW D'1'
0555   00??               M     MOVWF CORNIO_DELAY_FT4
                          M     
0556   0B??               M     DECFSZ CORNIO_DELAY_FT1,1 
0557   2???               M     GOTO $-1 
0558   0B??               M     DECFSZ CORNIO_DELAY_FT2,1
0559   2???               M     GOTO $-3
055A   0B??               M     DECFSZ CORNIO_DELAY_FT3,1
055B   2???               M     GOTO $-5
055C   0B??               M     DECFSZ CORNIO_DELAY_FT4,1
055D   2???               M     GOTO $-7
                      00130  DELAY_S D'1'
055E   30A5               M     MOVLW D'165' 
055F   00??               M     MOVWF CORNIO_DELAY_FT1 
                          M     
0560   30FF               M     MOVLW D'255' 
0561   00??               M     MOVWF CORNIO_DELAY_FT2
                          M     
0562   3004               M     MOVLW D'4'
0563   00??               M     MOVWF CORNIO_DELAY_FT3
                          M     
0564   3001               M     MOVLW D'1'
0565   00??               M     MOVWF CORNIO_DELAY_FT4
                          M     
0566   0B??               M     DECFSZ CORNIO_DELAY_FT1,1 
0567   2???               M     GOTO $-1 
0568   0B??               M     DECFSZ CORNIO_DELAY_FT2,1
0569   2???               M     GOTO $-3
056A   0B??               M     DECFSZ CORNIO_DELAY_FT3,1
056B   2???               M     GOTO $-5
056C   0B??               M     DECFSZ CORNIO_DELAY_FT4,1
056D   2???               M     GOTO $-7
                      00131  DELAY_S D'1'
056E   30A5               M     MOVLW D'165' 
056F   00??               M     MOVWF CORNIO_DELAY_FT1 
MPASM 5.87                          MAIN.ASM   6-6-2020  3:57:00         PAGE 69


LOC  OBJECT CODE     LINE SOURCE TEXT
  VALUE

                          M     
0570   30FF               M     MOVLW D'255' 
0571   00??               M     MOVWF CORNIO_DELAY_FT2
                          M     
0572   3004               M     MOVLW D'4'
0573   00??               M     MOVWF CORNIO_DELAY_FT3
                          M     
0574   3001               M     MOVLW D'1'
0575   00??               M     MOVWF CORNIO_DELAY_FT4
                          M     
0576   0B??               M     DECFSZ CORNIO_DELAY_FT1,1 
0577   2???               M     GOTO $-1 
0578   0B??               M     DECFSZ CORNIO_DELAY_FT2,1
0579   2???               M     GOTO $-3
057A   0B??               M     DECFSZ CORNIO_DELAY_FT3,1
057B   2???               M     GOTO $-5
057C   0B??               M     DECFSZ CORNIO_DELAY_FT4,1
057D   2???               M     GOTO $-7
                      00132  DELAY_S D'1'
057E   30A5               M     MOVLW D'165' 
057F   00??               M     MOVWF CORNIO_DELAY_FT1 
                          M     
0580   30FF               M     MOVLW D'255' 
0581   00??               M     MOVWF CORNIO_DELAY_FT2
                          M     
0582   3004               M     MOVLW D'4'
0583   00??               M     MOVWF CORNIO_DELAY_FT3
                          M     
0584   3001               M     MOVLW D'1'
0585   00??               M     MOVWF CORNIO_DELAY_FT4
                          M     
0586   0B??               M     DECFSZ CORNIO_DELAY_FT1,1 
0587   2???               M     GOTO $-1 
0588   0B??               M     DECFSZ CORNIO_DELAY_FT2,1
0589   2???               M     GOTO $-3
058A   0B??               M     DECFSZ CORNIO_DELAY_FT3,1
058B   2???               M     GOTO $-5
058C   0B??               M     DECFSZ CORNIO_DELAY_FT4,1
058D   2???               M     GOTO $-7
                      00133  DELAY_S D'1'
058E   30A5               M     MOVLW D'165' 
058F   00??               M     MOVWF CORNIO_DELAY_FT1 
                          M     
0590   30FF               M     MOVLW D'255' 
0591   00??               M     MOVWF CORNIO_DELAY_FT2
                          M     
0592   3004               M     MOVLW D'4'
0593   00??               M     MOVWF CORNIO_DELAY_FT3
                          M     
0594   3001               M     MOVLW D'1'
0595   00??               M     MOVWF CORNIO_DELAY_FT4
                          M     
0596   0B??               M     DECFSZ CORNIO_DELAY_FT1,1 
MPASM 5.87                          MAIN.ASM   6-6-2020  3:57:00         PAGE 70


LOC  OBJECT CODE     LINE SOURCE TEXT
  VALUE

0597   2???               M     GOTO $-1 
0598   0B??               M     DECFSZ CORNIO_DELAY_FT2,1
0599   2???               M     GOTO $-3
059A   0B??               M     DECFSZ CORNIO_DELAY_FT3,1
059B   2???               M     GOTO $-5
059C   0B??               M     DECFSZ CORNIO_DELAY_FT4,1
059D   2???               M     GOTO $-7
059E   0008           00134  RETURN
                      00135  
                      00136                                                                  
059F                  00137 START:
                      00138  MOVLF D'1',CENA_LINHA_4
059F   3001               M  MOVLW D'1'
05A0   00??               M  MOVWF CENA_LINHA_4
05A1   2???           00139  CALL TELA_INICIAL
05A2   2???           00140  CALL SETUP_TIMER_INT
                      00141  
05A3                  00142 LOOP:
                      00143  CMPFL JOGO_RODANDO,1                                                           ; SE O JOGO NO ESTIVER 
                            RODANDO VAI PARA O MENU, CASO CONTRARIO VAI PRO JOGO
05A3   08??               M  MOVF JOGO_RODANDO,W
05A4   3C01               M  SUBLW 1
                      00144  JE GAME
05A5   1903               M  BTFSC STATUS, Z
05A6   2???               M  GOTO GAME
                      00145  MOVLF 0,PONTUACAO_U
05A7   3000               M  MOVLW 0
05A8   00??               M  MOVWF PONTUACAO_U
                      00146  MOVLF 0,PONTUACAO_D
05A9   3000               M  MOVLW 0
05AA   00??               M  MOVWF PONTUACAO_D
                      00147  MOVLF 0,CENA_LINHA_4
05AB   3000               M  MOVLW 0
05AC   00??               M  MOVWF CENA_LINHA_4
                      00148  MOVLF 0,CENA_LINHA_4_1
05AD   3000               M  MOVLW 0
05AE   00??               M  MOVWF CENA_LINHA_4_1
                      00149  
05AF                  00150 MENU:
05AF   2???           00151  CALL TELA_INSTRUCOES                                                           ; MOSTRA A TELA COM INST
                            RUES
05B0   2???           00152  CALL ENABLE_KEYBOARD                                                           ; ATIVA O TECLADO
05B1                  00153 MENU_INP:
05B1   2???           00154  CALL CORNIO_INPUT                                                              ; PEGA A ENTRADA DO USU
                            RIO, SE NADA FOI PRESSIONADO VOLTA PARA MENU
                      00155  CMPFL ENTRADA,KEY_NONE
05B2   08??               M  MOVF ENTRADA,W
05B3   3C1F               M  SUBLW KEY_NONE
                      00156  JE MENU_INP
05B4   1903               M  BTFSC STATUS, Z
05B5   2???               M  GOTO MENU_INP
                      00157  MOVLF 1,JOGO_RODANDO
05B6   3001               M  MOVLW 1
MPASM 5.87                          MAIN.ASM   6-6-2020  3:57:00         PAGE 71


LOC  OBJECT CODE     LINE SOURCE TEXT
  VALUE

05B7   00??               M  MOVWF JOGO_RODANDO
                      00158  DELAY_MS D'250'
05B8   30A5               M     MOVLW D'165' 
05B9   00??               M     MOVWF CORNIO_DELAY_FT1 
                          M     
05BA   30FA               M     MOVLW D'250' 
05BB   00??               M     MOVWF CORNIO_DELAY_FT2
                          M     
05BC   0B??               M     DECFSZ CORNIO_DELAY_FT1,1 
05BD   2???               M     GOTO $-1 
05BE   0B??               M     DECFSZ CORNIO_DELAY_FT2,1
05BF   2???               M     GOTO $-3
05C0   2???           00159  CALL LCD_ENABLE
                      00160  LCD_CMD L_CLR
05C1   3001               M  MOVLW L_CLR
05C2   00??               M  MOVWF LCD_CMD_INPUT
05C3   2???               M  CALL DEF_LCD_CMD
                      00161  
05C4                  00162 GAME:
05C4   2???           00163  CALL ENABLE_KEYBOARD
05C5   2???           00164  CALL CORNIO_INPUT
                      00165  CMPFL ENTRADA,KEY_NONE
05C6   08??               M  MOVF ENTRADA,W
05C7   3C1F               M  SUBLW KEY_NONE
                      00166  JE PLAYER_NOT_JUNP
05C8   1903               M  BTFSC STATUS, Z
05C9   2???               M  GOTO PLAYER_NOT_JUNP
                      00167  MOVLF 1,VOANDO
05CA   3001               M  MOVLW 1
05CB   00??               M  MOVWF VOANDO
                      00168  
05CC                  00169 PLAYER_NOT_JUNP:
05CC   2???           00170  CALL TELA_GAME
                      00171 
05CD   2???           00172  GOTO LOOP
3F3B                  00173  END
MPASM 5.87                          MAIN.ASM   6-6-2020  3:57:00         PAGE 72


SYMBOL TABLE
  LABEL                             VALUE 

ACKDT                             00000005
ACKEN                             00000004
ACKSTAT                           00000006
ADCON0                            0000001F
ADCON1                            0000009F
ADCS0                             00000006
ADCS1                             00000007
ADCS2                             00000006
ADDEN                             00000003
ADFM                              00000007
ADIE                              00000006
ADIF                              00000006
ADON                              00000000
ADRESH                            0000001E
ADRESL                            0000009E
BANK0                             
BANK1                             
BANK2                             
BANK3                             
BCLIE                             00000003
BCLIF                             00000003
BF                                00000000
BRGH                              00000002
C                                 00000000
C1INV                             00000004
C1OUT                             00000006
C2INV                             00000005
C2OUT                             00000007
CCP1CON                           00000017
CCP1IE                            00000002
CCP1IF                            00000002
CCP1M0                            00000000
CCP1M1                            00000001
CCP1M2                            00000002
CCP1M3                            00000003
CCP1X                             00000005
CCP1Y                             00000004
CCP2CON                           0000001D
CCP2IE                            00000000
CCP2IF                            00000000
CCP2M0                            00000000
CCP2M1                            00000001
CCP2M2                            00000002
CCP2M3                            00000003
CCP2X                             00000005
CCP2Y                             00000004
CCPR1                             00000015
CCPR1H                            00000016
CCPR1L                            00000015
CCPR2                             0000001B
CCPR2H                            0000001C
CCPR2L                            0000001B
CENA_LINHA_4                      00000012
MPASM 5.87                          MAIN.ASM   6-6-2020  3:57:00         PAGE 73


SYMBOL TABLE
  LABEL                             VALUE 

CENA_LINHA_4_1                    00000013
CHS0                              00000003
CHS1                              00000004
CHS2                              00000005
CIS                               00000003
CKE                               00000006
CKP                               00000004
CM0                               00000000
CM1                               00000001
CM2                               00000002
CMCON                             0000009C
CMIE                              00000006
CMIF                              00000006
CMPFF                             
CMPFL                             
CORNIO_BASE                       
CORNIO_DELAY_FT1                  00000006
CORNIO_DELAY_FT2                  00000007
CORNIO_DELAY_FT3                  00000008
CORNIO_DELAY_FT4                  00000009
CORNIO_DISPLAY                    
CORNIO_DISPLAY_DISP               0000000C
CORNIO_DISPLAY_F_DEF              000002CD
CORNIO_DISPLAY_F_DEF_EXIT         00000378
CORNIO_DISPLAY_HEADER             
CORNIO_DISPLAY_TO_DRAW_DISP       0000000E
CORNIO_DISPLAY_TO_DRAW_VALUE      0000000F
CORNIO_DISPLAY_VALUE              0000000D
CORNIO_DRAW_0                     0000036B
CORNIO_DRAW_1                     0000035E
CORNIO_DRAW_2                     00000351
CORNIO_DRAW_3                     00000344
CORNIO_DRAW_4                     00000337
CORNIO_DRAW_5                     0000032A
CORNIO_DRAW_6                     0000031D
CORNIO_DRAW_7                     00000310
CORNIO_DRAW_8                     00000303
CORNIO_DRAW_9                     000002F6
CORNIO_EXIT                       00000117
CORNIO_INPUT                      000000B2
CORNIO_INPUT_DELAY                000000EA
CORNIO_INPUT_FUNC_DEF             
CORNIO_INPUT_LOOP                 0000007A
CORNIO_INPUT_LOOP_INI             00000085
CORNIO_LCD                        
CORNIO_MOV0                       000000F9
CORNIO_MOV1                       000000FC
CORNIO_MOV2                       000000FF
CORNIO_MOV3                       00000102
CORNIO_MOV4                       00000105
CORNIO_MOV5                       00000108
CORNIO_MOV6                       0000010B
CORNIO_MOV7                       0000010E
MPASM 5.87                          MAIN.ASM   6-6-2020  3:57:00         PAGE 74


SYMBOL TABLE
  LABEL                             VALUE 

CORNIO_MOV8                       00000111
CORNIO_MOV9                       00000114
CORNIO_MOV_ASTER                  000000F3
CORNIO_MOV_HASH                   000000F6
CREN                              00000004
CSRC                              00000007
CVR0                              00000000
CVR1                              00000001
CVR2                              00000002
CVR3                              00000003
CVRCON                            0000009D
CVREN                             00000007
CVROE                             00000006
CVRR                              00000005
D                                 00000005
DATA_ADDRESS                      00000005
DC                                00000001
DEFINE_DISPLAY_FUNCS              
DEFINE_DISPLAY_FUNC_HEAD          
DEFINE_FUNCS                      00000000
DEFINE_INPUT_FUNCS                
DEFINE_LCD_FUNCS                  
DEF_LCD_CMD                       0000000B
DEF_LCD_DAT                       00000022
DELAY_MS                          
DELAY_S                           
DESENHA_PEDRA                     
DISPLAY_F                         
DISPLAY_VARS                      
DISP_1                            00000004
DISP_2                            00000008
DISP_3                            00000010
DISP_4                            00000020
D_A                               00000005
D_NOT_A                           00000005
EEADR                             0000010D
EEADRH                            0000010F
EECON1                            0000018C
EECON2                            0000018D
EEDATA                            0000010C
EEDATH                            0000010E
EEIE                              00000004
EEIF                              00000004
EEPGD                             00000007
ENABLE_DISPLAY                    000002C2
ENABLE_KEYBOARD                   0000006E
END_PLAYER_DRAW                   00000539
ENTRADA                           00000000
EXIT_TIMER                        00000044
F                                 00000001
FERR                              00000002
FSR                               00000004
GAME                              000005C4
MPASM 5.87                          MAIN.ASM   6-6-2020  3:57:00         PAGE 75


SYMBOL TABLE
  LABEL                             VALUE 

GCEN                              00000007
GIE                               00000007
GO                                00000002
GO_DONE                           00000002
GO_NOT_DONE                       00000002
H                                 +1
I2C_DATA                          00000005
I2C_READ                          00000002
I2C_START                         00000003
I2C_STOP                          00000004
IBF                               00000007
IBOV                              00000005
INDF                              00000000
INPUT_INC                         
INTCON                            0000000B
INTE                              00000004
INTEDG                            00000006
INTF                              00000001
IRP                               00000007
JE                                
JNE                               
JOGO_RODANDO                      00000003
KEY_0                             00000000
KEY_1                             00000001
KEY_2                             00000002
KEY_3                             00000003
KEY_4                             00000004
KEY_5                             00000005
KEY_6                             00000006
KEY_7                             00000007
KEY_8                             00000008
KEY_9                             00000009
KEY_ASTER                         0000003F
KEY_HASH                          0000007F
KEY_NONE                          0000001F
L                                 
LCD_CLEAR                         00000007
LCD_CMD                           
LCD_CMD_INPUT                     0000000A
LCD_DAT                           
LCD_DAT_F                         
LCD_DAT_INPUT                     0000000B
LCD_ENABLE                        00000000
LCD_INIT                          00000039
LCD_VARS                          
LDAT                              RE2
LENA                              RE1
LIB_VARS                          
LOOP                              000005A3
LPORT                             PORTD
L_CFG                             00000038
L_CLR                             00000001
L_CR                              0000000F
MPASM 5.87                          MAIN.ASM   6-6-2020  3:57:00         PAGE 76


SYMBOL TABLE
  LABEL                             VALUE 

L_L1                              00000080
L_L2                              000000C0
L_L3                              00000090
L_L4                              000000D0
L_NCR                             0000000C
L_OFF                             00000008
L_ON                              0000000F
L_SHIFT_LEFT                      00000018
L_SHIFT_RIGHT                     0000001C
MENU                              000005AF
MENU_INP                          000005B1
MOVFF                             
MOVLF                             
NOT_A                             00000005
NOT_ADDRESS                       00000005
NOT_BO                            00000000
NOT_BOR                           00000000
NOT_DONE                          00000002
NOT_PD                            00000003
NOT_POR                           00000001
NOT_RBPU                          00000007
NOT_RC8                           00000006
NOT_T1SYNC                        00000002
NOT_TO                            00000004
NOT_TX8                           00000006
NOT_W                             00000002
NOT_WRITE                         00000002
OBF                               00000006
OERR                              00000001
OPTION_REG                        00000081
P                                 00000004
PCFG0                             00000000
PCFG1                             00000001
PCFG2                             00000002
PCFG3                             00000003
PCL                               00000002
PCLATH                            0000000A
PCON                              0000008E
PEIE                              00000006
PEN                               00000002
PIE1                              0000008C
PIE2                              0000008D
PIR1                              0000000C
PIR2                              0000000D
PLAYER_NOT_JUNP                   000005CC
PLAYER_ON_3                       000003A3
PLAYER_ON_4                       00000472
PONTUACAO_D                       00000002
PONTUACAO_U                       00000001
PORTA                             00000005
PORTB                             00000006
PORTC                             00000007
PORTD                             00000008
MPASM 5.87                          MAIN.ASM   6-6-2020  3:57:00         PAGE 77


SYMBOL TABLE
  LABEL                             VALUE 

PORTE                             00000009
PR2                               00000092
PS0                               00000000
PS1                               00000001
PS2                               00000002
PSA                               00000003
PSPIE                             00000007
PSPIF                             00000007
PSPMODE                           00000004
R                                 00000002
RA0                               00000000
RA1                               00000001
RA2                               00000002
RA3                               00000003
RA4                               00000004
RA5                               00000005
RB0                               00000000
RB1                               00000001
RB2                               00000002
RB3                               00000003
RB4                               00000004
RB5                               00000005
RB6                               00000006
RB7                               00000007
RBIE                              00000003
RBIF                              00000000
RC0                               00000000
RC1                               00000001
RC2                               00000002
RC3                               00000003
RC4                               00000004
RC5                               00000005
RC6                               00000006
RC7                               00000007
RC8_9                             00000006
RC9                               00000006
RCD8                              00000000
RCEN                              00000003
RCIE                              00000005
RCIF                              00000005
RCREG                             0000001A
RCSTA                             00000018
RD                                00000000
RD0                               00000000
RD1                               00000001
RD2                               00000002
RD3                               00000003
RD4                               00000004
RD5                               00000005
RD6                               00000006
RD7                               00000007
RE0                               00000000
RE1                               00000001
MPASM 5.87                          MAIN.ASM   6-6-2020  3:57:00         PAGE 78


SYMBOL TABLE
  LABEL                             VALUE 

RE2                               00000002
READ_WRITE                        00000002
RESTART_MOVE                      0000001A
RESTART_MOVE_CONT                 00000020
RP0                               00000005
RP1                               00000006
RSEN                              00000001
RX9                               00000006
RX9D                              00000000
R_NOT_W                           00000002
R_W                               00000002
S                                 00000003
SEN                               00000000
SETUP_TIMER_INT                   0000053A
SHOW_0                            0000003F
SHOW_1                            00000006
SHOW_2                            0000005B
SHOW_3                            0000004F
SHOW_4                            00000066
SHOW_5                            0000006D
SHOW_6                            0000007D
SHOW_7                            00000027
SHOW_8                            0000007F
SHOW_9                            00000067
SKIP_INC_TEMPO_VOANDO             00000033
SKIP_MOVE_PEDRA                   00000026
SK_INC_PT_D                       00000043
SMP                               00000007
SPBRG                             00000099
SPEN                              00000007
SREN                              00000005
SSPADD                            00000093
SSPBUF                            00000013
SSPCON                            00000014
SSPCON2                           00000091
SSPEN                             00000005
SSPIE                             00000003
SSPIF                             00000003
SSPM0                             00000000
SSPM1                             00000001
SSPM2                             00000002
SSPM3                             00000003
SSPOV                             00000006
SSPSTAT                           00000094
START                             0000059F
STATUS                            00000003
SYNC                              00000004
T0CS                              00000005
T0IE                              00000005
T0IF                              00000002
T0SE                              00000004
T1CKPS0                           00000004
T1CKPS1                           00000005
MPASM 5.87                          MAIN.ASM   6-6-2020  3:57:00         PAGE 79


SYMBOL TABLE
  LABEL                             VALUE 

T1CON                             00000010
T1INSYNC                          00000002
T1OSCEN                           00000003
T1SYNC                            00000002
T2CKPS0                           00000000
T2CKPS1                           00000001
T2CON                             00000012
TELAS_DEF                         
TELA_AP                           00000120
TELA_AP_INC                       
TELA_GAME                         00000379
TELA_GAME_DEFINE_FUNCS            
TELA_GAME_HEADER                  
TELA_GAME_VARS                    
TELA_INICIAL                      0000054C
TELA_INSTRUCOES                   000001F1
TEMPO_VOANDO                      00000011
TEMP_PT_D                         00000014
TEMP_PT_U                         00000015
TIMER_COUNT                       00000004
TIMER_INT                         00000007
TIMER_MOVE_PEDRA                  00000005
TMR0                              00000001
TMR0IE                            00000005
TMR0IF                            00000002
TMR1                              0000000E
TMR1CS                            00000001
TMR1H                             0000000F
TMR1IE                            00000000
TMR1IF                            00000000
TMR1L                             0000000E
TMR1ON                            00000000
TMR2                              00000011
TMR2IE                            00000001
TMR2IF                            00000001
TMR2ON                            00000002
TOUTPS0                           00000003
TOUTPS1                           00000004
TOUTPS2                           00000005
TOUTPS3                           00000006
TRISA                             00000085
TRISA0                            00000000
TRISA1                            00000001
TRISA2                            00000002
TRISA3                            00000003
TRISA4                            00000004
TRISA5                            00000005
TRISB                             00000086
TRISB0                            00000000
TRISB1                            00000001
TRISB2                            00000002
TRISB3                            00000003
TRISB4                            00000004
MPASM 5.87                          MAIN.ASM   6-6-2020  3:57:00         PAGE 80


SYMBOL TABLE
  LABEL                             VALUE 

TRISB5                            00000005
TRISB6                            00000006
TRISB7                            00000007
TRISC                             00000087
TRISC0                            00000000
TRISC1                            00000001
TRISC2                            00000002
TRISC3                            00000003
TRISC4                            00000004
TRISC5                            00000005
TRISC6                            00000006
TRISC7                            00000007
TRISD                             00000088
TRISD0                            00000000
TRISD1                            00000001
TRISD2                            00000002
TRISD3                            00000003
TRISD4                            00000004
TRISD5                            00000005
TRISD6                            00000006
TRISD7                            00000007
TRISE                             00000089
TRISE0                            00000000
TRISE1                            00000001
TRISE2                            00000002
TRMT                              00000001
TX8_9                             00000006
TX9                               00000006
TX9D                              00000000
TXD8                              00000000
TXEN                              00000005
TXIE                              00000004
TXIF                              00000004
TXREG                             00000019
TXSTA                             00000098
UA                                00000001
VOANDO                            00000010
W                                 00000000
WCOL                              00000007
WR                                00000001
WREN                              00000002
WRERR                             00000003
Z                                 00000002
_BODEN_OFF                        00003FBF
_BODEN_ON                         00003FFF
_BOREN_OFF                        00003FBF
_BOREN_ON                         00003FFF
_CONFIG                           00002007
_CPD_OFF                          00003FFF
_CPD_ON                           00003EFF
_CP_ALL                           00001FFF
_CP_OFF                           00003FFF
_CP_ON                            00001FFF
MPASM 5.87                          MAIN.ASM   6-6-2020  3:57:00         PAGE 81


SYMBOL TABLE
  LABEL                             VALUE 

_DEBUG_OFF                        00003FFF
_DEBUG_ON                         000037FF
_DEVID1                           00002006
_FOSC_EXTRC                       00003FFF
_FOSC_HS                          00003FFE
_FOSC_LP                          00003FFC
_FOSC_XT                          00003FFD
_HS_OSC                           00003FFE
_IDLOC0                           00002000
_IDLOC1                           00002001
_IDLOC2                           00002002
_IDLOC3                           00002003
_LP_OSC                           00003FFC
_LVP_OFF                          00003F7F
_LVP_ON                           00003FFF
_MAIN_PROG_0014                   00000014
_MAIN_PROG_0016                   00000016
_MAIN_PROG_001D                   0000001D
_MAIN_PROG_001F                   0000001F
_MAIN_PROG_002B                   0000002B
_MAIN_PROG_002D                   0000002D
_MAIN_PROG_0034                   00000034
_MAIN_PROG_0036                   00000036
_MAIN_PROG_0041                   00000041
_MAIN_PROG_0043                   00000043
_MAIN_PROG_004D                   0000004D
_MAIN_PROG_004F                   0000004F
_MAIN_PROG_0058                   00000058
_MAIN_PROG_005A                   0000005A
_MAIN_PROG_00EF                   000000EF
_MAIN_PROG_00F1                   000000F1
_MAIN_PROG_011C                   0000011C
_MAIN_PROG_011E                   0000011E
_MAIN_PROG_02FF                   000002FF
_MAIN_PROG_0301                   00000301
_MAIN_PROG_030C                   0000030C
_MAIN_PROG_030E                   0000030E
_MAIN_PROG_0319                   00000319
_MAIN_PROG_031B                   0000031B
_MAIN_PROG_0326                   00000326
_MAIN_PROG_0328                   00000328
_MAIN_PROG_0333                   00000333
_MAIN_PROG_0335                   00000335
_MAIN_PROG_0340                   00000340
_MAIN_PROG_0342                   00000342
_MAIN_PROG_034D                   0000034D
_MAIN_PROG_034F                   0000034F
_MAIN_PROG_035A                   0000035A
_MAIN_PROG_035C                   0000035C
_MAIN_PROG_0367                   00000367
_MAIN_PROG_0369                   00000369
_MAIN_PROG_0374                   00000374
_MAIN_PROG_0376                   00000376
MPASM 5.87                          MAIN.ASM   6-6-2020  3:57:00         PAGE 82


SYMBOL TABLE
  LABEL                             VALUE 

_MAIN_PROG_03C2                   000003C2
_MAIN_PROG_03C3                   000003C3
_MAIN_PROG_03C7                   000003C7
_MAIN_PROG_03CD                   000003CD
_MAIN_PROG_03CE                   000003CE
_MAIN_PROG_03D2                   000003D2
_MAIN_PROG_03D8                   000003D8
_MAIN_PROG_03D9                   000003D9
_MAIN_PROG_03DD                   000003DD
_MAIN_PROG_03E3                   000003E3
_MAIN_PROG_03E4                   000003E4
_MAIN_PROG_03E8                   000003E8
_MAIN_PROG_03EE                   000003EE
_MAIN_PROG_03EF                   000003EF
_MAIN_PROG_03F3                   000003F3
_MAIN_PROG_03F9                   000003F9
_MAIN_PROG_03FA                   000003FA
_MAIN_PROG_03FE                   000003FE
_MAIN_PROG_0404                   00000404
_MAIN_PROG_0405                   00000405
_MAIN_PROG_0409                   00000409
_MAIN_PROG_040F                   0000040F
_MAIN_PROG_0410                   00000410
_MAIN_PROG_0414                   00000414
_MAIN_PROG_041A                   0000041A
_MAIN_PROG_041B                   0000041B
_MAIN_PROG_041F                   0000041F
_MAIN_PROG_0425                   00000425
_MAIN_PROG_0426                   00000426
_MAIN_PROG_042A                   0000042A
_MAIN_PROG_0430                   00000430
_MAIN_PROG_0431                   00000431
_MAIN_PROG_0435                   00000435
_MAIN_PROG_043B                   0000043B
_MAIN_PROG_043C                   0000043C
_MAIN_PROG_0440                   00000440
_MAIN_PROG_0446                   00000446
_MAIN_PROG_0447                   00000447
_MAIN_PROG_044B                   0000044B
_MAIN_PROG_0451                   00000451
_MAIN_PROG_0452                   00000452
_MAIN_PROG_0456                   00000456
_MAIN_PROG_045C                   0000045C
_MAIN_PROG_045D                   0000045D
_MAIN_PROG_0461                   00000461
_MAIN_PROG_0467                   00000467
_MAIN_PROG_0468                   00000468
_MAIN_PROG_046C                   0000046C
_MAIN_PROG_0491                   00000491
_MAIN_PROG_0492                   00000492
_MAIN_PROG_0496                   00000496
_MAIN_PROG_049C                   0000049C
_MAIN_PROG_049D                   0000049D
MPASM 5.87                          MAIN.ASM   6-6-2020  3:57:00         PAGE 83


SYMBOL TABLE
  LABEL                             VALUE 

_MAIN_PROG_04A1                   000004A1
_MAIN_PROG_04A7                   000004A7
_MAIN_PROG_04A8                   000004A8
_MAIN_PROG_04AC                   000004AC
_MAIN_PROG_04B2                   000004B2
_MAIN_PROG_04B3                   000004B3
_MAIN_PROG_04B7                   000004B7
_MAIN_PROG_04BD                   000004BD
_MAIN_PROG_04BE                   000004BE
_MAIN_PROG_04C2                   000004C2
_MAIN_PROG_04C8                   000004C8
_MAIN_PROG_04C9                   000004C9
_MAIN_PROG_04CD                   000004CD
_MAIN_PROG_04D3                   000004D3
_MAIN_PROG_04D4                   000004D4
_MAIN_PROG_04D8                   000004D8
_MAIN_PROG_04E1                   000004E1
_MAIN_PROG_04E2                   000004E2
_MAIN_PROG_04E6                   000004E6
_MAIN_PROG_04EC                   000004EC
_MAIN_PROG_04ED                   000004ED
_MAIN_PROG_04F1                   000004F1
_MAIN_PROG_04F7                   000004F7
_MAIN_PROG_04F8                   000004F8
_MAIN_PROG_04FC                   000004FC
_MAIN_PROG_0502                   00000502
_MAIN_PROG_0503                   00000503
_MAIN_PROG_0507                   00000507
_MAIN_PROG_050D                   0000050D
_MAIN_PROG_050E                   0000050E
_MAIN_PROG_0512                   00000512
_MAIN_PROG_0518                   00000518
_MAIN_PROG_0519                   00000519
_MAIN_PROG_051D                   0000051D
_MAIN_PROG_0523                   00000523
_MAIN_PROG_0524                   00000524
_MAIN_PROG_0528                   00000528
_MAIN_PROG_052E                   0000052E
_MAIN_PROG_052F                   0000052F
_MAIN_PROG_0533                   00000533
_MAIN_PROG_0557                   00000557
_MAIN_PROG_0559                   00000559
_MAIN_PROG_055B                   0000055B
_MAIN_PROG_055D                   0000055D
_MAIN_PROG_0567                   00000567
_MAIN_PROG_0569                   00000569
_MAIN_PROG_056B                   0000056B
_MAIN_PROG_056D                   0000056D
_MAIN_PROG_0577                   00000577
_MAIN_PROG_0579                   00000579
_MAIN_PROG_057B                   0000057B
_MAIN_PROG_057D                   0000057D
_MAIN_PROG_0587                   00000587
MPASM 5.87                          MAIN.ASM   6-6-2020  3:57:00         PAGE 84


SYMBOL TABLE
  LABEL                             VALUE 

_MAIN_PROG_0589                   00000589
_MAIN_PROG_058B                   0000058B
_MAIN_PROG_058D                   0000058D
_MAIN_PROG_0597                   00000597
_MAIN_PROG_0599                   00000599
_MAIN_PROG_059B                   0000059B
_MAIN_PROG_059D                   0000059D
_MAIN_PROG_05BD                   000005BD
_MAIN_PROG_05BF                   000005BF
_PWRTE_OFF                        00003FFF
_PWRTE_ON                         00003FF7
_RC_OSC                           00003FFF
_WDTE_OFF                         00003FFB
_WDTE_ON                          00003FFF
_WDT_OFF                          00003FFB
_WDT_ON                           00003FFF
_WRT_1FOURTH                      00003BFF
_WRT_256                          00003DFF
_WRT_HALF                         000039FF
_WRT_OFF                          00003FFF
_XT_OSC                           00003FFD
__16F877A                         00000001
__DEBUG                           

Errors   :     0
Warnings :    47 reported,     0 suppressed
Messages :    53 reported,     0 suppressed

